; ModuleID = 'lodepng.o.bc'
source_filename = "llvm-link"
target datalayout = "e-m:e-p270:32:32-p271:32:32-p272:64:64-i64:64-f80:128-n8:16:32:64-S128"
target triple = "x86_64-unknown-linux-gnu"

%struct.LodePNGCompressSettings = type { i32, i32, i32, i32, i32, i32, {}*, {}*, i8* }
%struct.LodePNGDecompressSettings = type { i32, i32, i64, {}*, {}*, i8* }
%"class.lodepng::State" = type { %struct.LodePNGState }
%struct.LodePNGState = type { %struct.LodePNGDecoderSettings, %struct.LodePNGEncoderSettings, %struct.LodePNGColorMode, %struct.LodePNGInfo, i32 }
%struct.LodePNGDecoderSettings = type { %struct.LodePNGDecompressSettings, i32, i32, i32, i32, i32, i32, i64, i64 }
%struct.LodePNGEncoderSettings = type { %struct.LodePNGCompressSettings, i32, i32, i32, i8*, i32, i32, i32 }
%struct.LodePNGColorMode = type { i32, i32, i8*, i64, i32, i32, i32, i32 }
%struct.LodePNGInfo = type { i32, i32, i32, %struct.LodePNGColorMode, i32, i32, i32, i32, i64, i8**, i8**, i64, i8**, i8**, i8**, i8**, i32, %struct.LodePNGTime, i32, i32, i32, i32, i32, i32, i32, i32, i32, i32, i32, i32, i32, i32, i32, i32, i32, i32, i8*, i8*, i32, i32, i32, i32, i32, i32, [3 x i8*], [3 x i64] }
%struct.LodePNGTime = type { i32, i32, i32, i32, i32, i32 }
%struct._IO_FILE = type { i32, i8*, i8*, i8*, i8*, i8*, i8*, i8*, i8*, i8*, i8*, i8*, %struct._IO_marker*, %struct._IO_FILE*, i32, i32, i64, i16, i8, [1 x i8], i8*, i64, %struct._IO_codecvt*, %struct._IO_wide_data*, %struct._IO_FILE*, i8*, i64, i32, [20 x i8] }
%struct._IO_marker = type opaque
%struct._IO_codecvt = type opaque
%struct._IO_wide_data = type opaque
%struct.BPMLists = type { i32, %struct.BPMNode*, i32, i32, %struct.BPMNode**, i32, %struct.BPMNode**, %struct.BPMNode** }
%struct.BPMNode = type { i32, i32, %struct.BPMNode*, i32 }
%struct.ucvector = type { i8*, i64, i64 }
%struct.HuffmanTree = type { i32*, i32*, i32, i32, i8*, i16* }
%struct.uivector = type { i32*, i64, i64 }
%struct.Hash = type { i32*, i16*, i32*, i32*, i16*, i16* }
%struct.LodePNGBitWriter = type { %struct.ucvector*, i8 }
%struct.ColorTree = type { [16 x %struct.ColorTree*], i32 }
%struct.LodePNGColorStats = type { i32, i32, i16, i16, i16, i32, i32, [1024 x i8], i32, i64, i32, i32 }
%"class.std::vector" = type { %"struct.std::_Vector_base" }
%"struct.std::_Vector_base" = type { %"struct.std::_Vector_base<unsigned char, std::allocator<unsigned char> >::_Vector_impl" }
%"struct.std::_Vector_base<unsigned char, std::allocator<unsigned char> >::_Vector_impl" = type { %"struct.std::_Vector_base<unsigned char, std::allocator<unsigned char> >::_Vector_impl_data" }
%"struct.std::_Vector_base<unsigned char, std::allocator<unsigned char> >::_Vector_impl_data" = type { i8*, i8*, i8* }
%"class.std::__cxx11::basic_string" = type { %"struct.std::__cxx11::basic_string<char>::_Alloc_hider", i64, %union.anon }
%"struct.std::__cxx11::basic_string<char>::_Alloc_hider" = type { i8* }
%union.anon = type { i64, [8 x i8] }

$_ZNSt6vectorIhSaIhEE14_M_fill_insertEN9__gnu_cxx17__normal_iteratorIPhS1_EEmRKh = comdat any

$_ZNSt6vectorIhSaIhEE15_M_range_insertIPhEEvN9__gnu_cxx17__normal_iteratorIS3_S1_EET_S7_St20forward_iterator_tag = comdat any

@.str = private unnamed_addr constant [9 x i8] c"20230410\00", align 1
@LODEPNG_VERSION_STRING = dso_local local_unnamed_addr global i8* getelementptr inbounds ([9 x i8], [9 x i8]* @.str, i64 0, i64 0), align 8
@.str.1 = private unnamed_addr constant [3 x i8] c"wb\00", align 1
@lodepng_default_compress_settings = dso_local local_unnamed_addr constant { i32, i32, i32, i32, i32, i32, i32 (i8**, i64*, i8*, i64, %struct.LodePNGCompressSettings*)*, i32 (i8**, i64*, i8*, i64, %struct.LodePNGCompressSettings*)*, i8* } { i32 2, i32 1, i32 2048, i32 3, i32 128, i32 1, i32 (i8**, i64*, i8*, i64, %struct.LodePNGCompressSettings*)* null, i32 (i8**, i64*, i8*, i64, %struct.LodePNGCompressSettings*)* null, i8* null }, align 8
@lodepng_default_decompress_settings = dso_local local_unnamed_addr constant { i32, i32, i64, i32 (i8**, i64*, i8*, i64, %struct.LodePNGDecompressSettings*)*, i32 (i8**, i64*, i8*, i64, %struct.LodePNGDecompressSettings*)*, i8* } zeroinitializer, align 8
@_ZL20lodepng_crc32_table7 = internal unnamed_addr constant [256 x i32] [i32 0, i32 -861273954, i32 1109723005, i32 -1903228957, i32 -2075521286, i32 1222643300, i32 -965801593, i32 180685081, i32 -739959883, i32 525277995, i32 -1849680696, i32 1567235158, i32 1471092047, i32 -1694165551, i32 361370162, i32 -652209492, i32 2092642603, i32 -1341050443, i32 1050555990, i32 -231459128, i32 -118407215, i32 878395215, i32 -1160496980, i32 1987983410, i32 -1352783202, i32 1676945920, i32 -310694429, i32 567356797, i32 722740324, i32 -406969094, i32 1764827929, i32 -1516559481, i32 -109682090, i32 903635656, i32 -1152162517, i32 2012833205, i32 2101111980, i32 -1315541966, i32 1058630609, i32 -206345393, i32 714308067, i32 -432440963, i32 1756790430, i32 -1541636608, i32 -1361479911, i32 1651734407, i32 -319000476, i32 542535930, i32 -2050141315, i32 1231508451, i32 -941075456, i32 188896414, i32 25648519, i32 -852665063, i32 1134713594, i32 -1895277980, i32 1445480648, i32 -1702737834, i32 336416693, i32 -660123861, i32 -765311438, i32 516441772, i32 -1874378417, i32 1559052753, i32 698204909, i32 -449330573, i32 1807271312, i32 -1491942130, i32 -1378366441, i32 1635634313, i32 -269300886, i32 593021940, i32 -92743336, i32 919787974, i32 -1201807835, i32 1962401467, i32 2117261218, i32 -1298606276, i32 1008193759, i32 -255995839, i32 1428616134, i32 -1718815912, i32 386135227, i32 -609618907, i32 -781386436, i32 499580322, i32 -1823868351, i32 1608776415, i32 -2033981325, i32 1248454893, i32 -991498482, i32 139259792, i32 42591881, i32 -836508137, i32 1085071860, i32 -1945706134, i32 -789864261, i32 474062885, i32 -1831950394, i32 1583654744, i32 1419882049, i32 -1744064801, i32 377792828, i32 -634476126, i32 51297038, i32 -811287664, i32 1093385331, i32 -1920877331, i32 -2025540108, i32 1273935210, i32 -983453047, i32 164344343, i32 -1404006000, i32 1627033870, i32 -294283539, i32 585078387, i32 672833386, i32 -458186764, i32 1782552599, i32 -1500145527, i32 2142603813, i32 -1289778501, i32 1032883544, i32 -247820858, i32 -67140385, i32 928351297, i32 -1176861790, i32 1970307900, i32 1396409818, i32 -1617853116, i32 287212199, i32 -575372743, i32 -680424672, i32 467372990, i32 -1789621155, i32 1509854403, i32 -2132894097, i32 1282711281, i32 -1023698670, i32 240228748, i32 76845205, i32 -935423989, i32 1186043880, i32 -1977903242, i32 796964081, i32 -483740561, i32 1839575948, i32 -1592806638, i32 -1412777461, i32 1734392469, i32 -370164362, i32 625327592, i32 -60444860, i32 818917338, i32 -1103058887, i32 1927981223, i32 2016387518, i32 -1266310880, i32 973776579, i32 -157243811, i32 -1437735028, i32 1726474002, i32 -395779855, i32 616751215, i32 772270454, i32 -491918872, i32 1814228491, i32 -1601638763, i32 2041117753, i32 -1258095449, i32 999160644, i32 -148374566, i32 -35458365, i32 826864221, i32 -1077414466, i32 1936586016, i32 -688466265, i32 442291769, i32 -1798057510, i32 1484378436, i32 1388107869, i32 -1642669885, i32 278519584, i32 -600580162, i32 85183762, i32 -910570100, i32 1194773103, i32 -1952658703, i32 -2124823576, i32 1307820918, i32 -1015233387, i32 265733131, i32 2057717559, i32 -1240709207, i32 948125770, i32 -198623020, i32 -18069043, i32 843467091, i32 -1127657808, i32 1885556270, i32 -1455203198, i32 1709792284, i32 -345613313, i32 667704161, i32 755585656, i32 -509390106, i32 1865176325, i32 -1551477349, i32 102594076, i32 -893946238, i32 1144549729, i32 -2003668481, i32 -2108196634, i32 1325234296, i32 -1066238053, i32 215514885, i32 -705139287, i32 424832311, i32 -1747096876, i32 1534552650, i32 1370645331, i32 -1659345971, i32 328688686, i32 -549624656, i32 -2083510943, i32 1333405183, i32 -1040899556, i32 224338562, i32 127544219, i32 -886035707, i32 1170156774, i32 -1995101064, i32 1345666772, i32 -1667285430, i32 303053225, i32 -558221001, i32 -729862098, i32 416624816, i32 -1772472493, i32 1525692365, i32 -9759670, i32 868291796, i32 -1118956745, i32 1910772649, i32 2065767088, i32 -1215620562, i32 956571085, i32 -173138605, i32 747507711, i32 -534507679, i32 1856702594, i32 -1576990692, i32 -1463549691, i32 1684930971, i32 -354351496, i32 642451174], align 16
@_ZL20lodepng_crc32_table6 = internal unnamed_addr constant [256 x i32] [i32 0, i32 -1502147660, i32 -1751183063, i32 837294749, i32 -196140013, i32 1379413927, i32 1674589498, i32 -978895218, i32 871321191, i32 -1785182765, i32 -1536139442, i32 34034938, i32 -945788300, i32 1641505216, i32 1346337629, i32 -163024663, i32 1742642382, i32 -1045850246, i32 -264139289, i32 1446413907, i32 -1819166499, i32 904311657, i32 68069876, i32 -1569086912, i32 1412551337, i32 -230237923, i32 -1011956864, i32 1708771380, i32 -1602292038, i32 101317902, i32 937551763, i32 -1852380121, i32 -809682532, i32 1774858792, i32 1478633653, i32 -27974911, i32 1005723023, i32 -1652222405, i32 -1402139482, i32 169477906, i32 -61704197, i32 1512406095, i32 1808623314, i32 -843420314, i32 136139752, i32 -1368762276, i32 -1618853183, i32 972376437, i32 -1469864622, i32 236236518, i32 1073525883, i32 -1718894641, i32 1546420545, i32 -94663947, i32 -877424536, i32 1841601500, i32 -1685263563, i32 1039917185, i32 202635804, i32 -1436225112, i32 1875103526, i32 -910900078, i32 -128131569, i32 1579931067, i32 1141601657, i32 -495157555, i32 -745249712, i32 1977839588, i32 -1337699990, i32 372464350, i32 668680259, i32 -2119414793, i32 2011446046, i32 -778882902, i32 -528799177, i32 1175200131, i32 -2085937395, i32 635180217, i32 338955812, i32 -1304230512, i32 601221559, i32 -2052922877, i32 -1270155106, i32 306049834, i32 -677720668, i32 1911408144, i32 1074125965, i32 -428681415, i32 272279504, i32 -1236423580, i32 -2019182855, i32 567459149, i32 -462060605, i32 1107462263, i32 1944752874, i32 -711091874, i32 -1950987035, i32 767641425, i32 472473036, i32 -1168222600, i32 2147051766, i32 -644979902, i32 -395937313, i32 1309766251, i32 -1202126206, i32 506333494, i32 801510315, i32 -1984882657, i32 1276520081, i32 -362730203, i32 -611764296, i32 2113813516, i32 -328675285, i32 1243601823, i32 2079834370, i32 -578762058, i32 405271608, i32 -1101987956, i32 -1883708143, i32 701492901, i32 -544760244, i32 2045810168, i32 1209569125, i32 -294681391, i32 734575199, i32 -1916816917, i32 -1135105162, i32 438345922, i32 -2011763982, i32 778166598, i32 529136603, i32 -1174474641, i32 2086260449, i32 -634469035, i32 -339288120, i32 1303499900, i32 -1141267307, i32 495890209, i32 744928700, i32 -1978548728, i32 1337360518, i32 -373191886, i32 -668364369, i32 2120129051, i32 -272075204, i32 1237286280, i32 2018993941, i32 -568300383, i32 461853231, i32 -1108321893, i32 -1944567034, i32 711936178, i32 -601409445, i32 2052076527, i32 1270360434, i32 -305192250, i32 677911624, i32 -1910564868, i32 -1074328223, i32 427820757, i32 1202443118, i32 -505620262, i32 -801848761, i32 1984154099, i32 -1276840067, i32 362020041, i32 612099668, i32 -2113081888, i32 1950653705, i32 -768371011, i32 -472151008, i32 1168934804, i32 -2146715366, i32 645706414, i32 395618355, i32 -1310481529, i32 544559008, i32 -2046671852, i32 -1209377143, i32 295523645, i32 -734368845, i32 1917673479, i32 1134918298, i32 -439193298, i32 328860103, i32 -1242756493, i32 -2080042770, i32 577903450, i32 -405461548, i32 1101147744, i32 1883911421, i32 -700629175, i32 -870473845, i32 1785369663, i32 1535282850, i32 -34241258, i32 944946072, i32 -1641697236, i32 -1345475919, i32 163225861, i32 -863764, i32 1501944408, i32 1752023237, i32 -837104783, i32 196998655, i32 -1379205557, i32 -1675434794, i32 978710370, i32 -1413283003, i32 229902577, i32 1012666988, i32 -1708451368, i32 1603020630, i32 -100979486, i32 -938264961, i32 1852063179, i32 -1741927134, i32 1046169238, i32 263412747, i32 -1446750273, i32 1818454321, i32 -904633723, i32 -67340264, i32 1569420204, i32 60859927, i32 -1512591965, i32 -1807763650, i32 843627658, i32 -135298556, i32 1368951216, i32 1617990445, i32 -972580711, i32 810543216, i32 -1774656572, i32 -1479476903, i32 27783917, i32 -1006580637, i32 1652017111, i32 1402985802, i32 -169289986, i32 1685994201, i32 -1039584915, i32 -203346960, i32 1435902020, i32 -1875829046, i32 910562686, i32 128847843, i32 -1579613097, i32 1469150398, i32 -236552438, i32 -1072798313, i32 1719234083, i32 -1545711443, i32 94984985, i32 876691844, i32 -1841935824], align 16
@_ZL20lodepng_crc32_table5 = internal unnamed_addr constant [256 x i32] [i32 0, i32 -883108955, i32 1304994059, i32 -2037091666, i32 -1684979178, i32 1355649459, i32 -698752227, i32 486879416, i32 -330071443, i32 655315400, i32 -1583668378, i32 1791488195, i32 2009251963, i32 -1130490914, i32 973758832, i32 -245976363, i32 64357019, i32 -930426562, i32 1310630800, i32 -2059243467, i32 -1740160883, i32 1394316072, i32 -711990906, i32 517157411, i32 -276463370, i32 618222419, i32 -1572003331, i32 1762783832, i32 1947517664, i32 -1085796027, i32 970744811, i32 -226447282, i32 128714038, i32 -856631661, i32 1248109629, i32 -2127005800, i32 -1673705696, i32 1466012805, i32 -772413909, i32 447296910, i32 -335575205, i32 547575038, i32 -1506335152, i32 1835791861, i32 1886307661, i32 -1154345240, i32 1034314822, i32 -151341085, i32 75106221, i32 -819538936, i32 1236444838, i32 -2098301693, i32 -1611971141, i32 1421317662, i32 -769399632, i32 427767573, i32 -399931968, i32 594892389, i32 -1511971637, i32 1857943406, i32 1941489622, i32 -1193012109, i32 1047553757, i32 -181619336, i32 257428076, i32 -1006315063, i32 1116777319, i32 -1983088446, i32 -1798748038, i32 1603640287, i32 -654186127, i32 308099796, i32 -485783551, i32 676813732, i32 -1362941686, i32 1704983215, i32 2023410199, i32 -1278862926, i32 894593820, i32 -32589639, i32 210634999, i32 -942482606, i32 1095150076, i32 -1977976231, i32 -1759556895, i32 1547934020, i32 -623383574, i32 294336591, i32 -522351974, i32 729897279, i32 -1391121519, i32 1716123700, i32 2068629644, i32 -1341121751, i32 914647431, i32 -36128222, i32 150212442, i32 -1012343553, i32 1161604689, i32 -1906278924, i32 -1822077620, i32 1480171241, i32 -559027129, i32 368132066, i32 -458781385, i32 805002898, i32 -1452331972, i32 1647574937, i32 2134298401, i32 -1268114300, i32 855535146, i32 -106775153, i32 186781121, i32 -1065427356, i32 1189784778, i32 -1917419665, i32 -1867296809, i32 1542429810, i32 -579080484, i32 371670393, i32 -411988052, i32 741170185, i32 -1430704473, i32 1642462466, i32 2095107514, i32 -1212408289, i32 824732849, i32 -93012204, i32 514856152, i32 -705902723, i32 1400419795, i32 -1742444938, i32 -2061412658, i32 1316849003, i32 -924190779, i32 62202976, i32 -219965771, i32 968836368, i32 -1087686722, i32 1954014235, i32 1769133219, i32 -1574041850, i32 616199592, i32 -270096883, i32 493229635, i32 -700791322, i32 1353627464, i32 -1678613267, i32 -2030611371, i32 1303087088, i32 -885000866, i32 6498043, i32 -248146898, i32 979978123, i32 -1124256475, i32 2007099008, i32 1789187640, i32 -1577581155, i32 661419827, i32 -332356458, i32 421269998, i32 -767507893, i32 1423225061, i32 -1618451648, i32 -2104667144, i32 1238466653, i32 -817499405, i32 68755798, i32 -179334269, i32 1041448998, i32 -1199099256, i32 1943789869, i32 1860096405, i32 -1518206416, i32 588673182, i32 -397761733, i32 449450869, i32 -778649392, i32 1459794558, i32 -1671536165, i32 -2124721821, i32 1242006214, i32 -862719896, i32 131015629, i32 -157708008, i32 1036337853, i32 -1152307181, i32 1879958454, i32 1829294862, i32 -1504444245, i32 549483013, i32 -342056544, i32 300424884, i32 -625685231, i32 1545650111, i32 -1753453542, i32 -1971757918, i32 1092980487, i32 -944636503, i32 216870412, i32 -38036263, i32 921128828, i32 -1334624814, i32 2066738807, i32 1714085583, i32 -1384772246, i32 736264132, i32 -524374943, i32 306060335, i32 -647835766, i32 1610005796, i32 -1800769919, i32 -1984995783, i32 1123257756, i32 -999817422, i32 255536279, i32 -26370494, i32 892423655, i32 -1281015991, i32 2029645036, i32 1711070292, i32 -1365241871, i32 674528607, i32 -479678726, i32 373562242, i32 -585578457, i32 1535949449, i32 -1865389780, i32 -1915397740, i32 1183418929, i32 -1071777633, i32 188820282, i32 -99116561, i32 827017802, i32 -1210107676, i32 2089020225, i32 1636228089, i32 -1428551588, i32 743340786, i32 -418207401, i32 361896217, i32 -556873028, i32 1482340370, i32 -1828295753, i32 -1912382705, i32 1163888810, i32 -1010042364, i32 144124321, i32 -104752268, i32 849168593, i32 -1274463617, i32 2136336858, i32 1649465698, i32 -1458828601, i32 798521449, i32 -456873012], align 16
@_ZL20lodepng_crc32_table4 = internal unnamed_addr constant [256 x i32] [i32 0, i32 1029712304, i32 2059424608, i32 1201699536, i32 -176118080, i32 -924807312, i32 -1891568224, i32 -1306469360, i32 812665793, i32 219177585, i32 1253054625, i32 2010132753, i32 -974066431, i32 -124730191, i32 -1087324575, i32 -2108647471, i32 1625331586, i32 1568718386, i32 438355170, i32 658566482, i32 -1788858046, i32 -1476388622, i32 -274701790, i32 -759149678, i32 1351670851, i32 1844508147, i32 709922595, i32 389064339, i32 -1525646717, i32 -1737469133, i32 -540005917, i32 -491782061, i32 -1044304124, i32 -56555852, i32 -1157530524, i32 -2040441388, i32 876710340, i32 153198708, i32 1317132964, i32 1944187668, i32 -240032571, i32 -858698379, i32 -1955514459, i32 -1240392171, i32 70369797, i32 961670069, i32 2129760613, i32 1133623509, i32 -1591625594, i32 -1673424586, i32 -605951002, i32 -427703722, i32 1419845190, i32 1774270454, i32 778128678, i32 318858390, i32 -1856900281, i32 -1406018825, i32 -342777817, i32 -688813673, i32 1691440519, i32 1504803895, i32 504432359, i32 594620247, i32 1492342857, i32 1704161785, i32 573770537, i32 525542041, i32 -1384907127, i32 -1877747911, i32 -676090391, i32 -355236775, i32 1753420680, i32 1440954936, i32 306397416, i32 790849880, i32 -1660701368, i32 -1604084488, i32 -406591960, i32 -626798696, i32 940822475, i32 91481723, i32 1121164459, i32 2142483739, i32 -845977333, i32 -252493637, i32 -1219282325, i32 -1976364069, i32 140739594, i32 889433530, i32 1923340138, i32 1338244826, i32 -35446070, i32 -1065153670, i32 -2027720278, i32 -1169991654, i32 -1724745907, i32 -1538105603, i32 -470670291, i32 -560853603, i32 1823658381, i32 1372780605, i32 376603373, i32 722643805, i32 -1455276916, i32 -1809705668, i32 -746426388, i32 -287160740, i32 1556257356, i32 1638052860, i32 637716780, i32 459464860, i32 -103620401, i32 -994915969, i32 -2095926353, i32 -1099785697, i32 206718479, i32 825388991, i32 1989285231, i32 1274166495, i32 -912086258, i32 -188579138, i32 -1285359506, i32 -1912417826, i32 1008864718, i32 21111934, i32 1189240494, i32 2072147742, i32 -1310281582, i32 -1937336030, i32 -886643726, i32 -163132862, i32 1147541074, i32 2030452706, i32 1051084082, i32 63335554, i32 -2120811693, i32 -1124674845, i32 -78206925, i32 -969506429, i32 1947622803, i32 1232499747, i32 248909555, i32 867575619, i32 -788125936, i32 -328855904, i32 -1413057424, i32 -1767481920, i32 612794832, i32 434546784, i32 1581699760, i32 1663499008, i32 -512332591, i32 -602520223, i32 -1682554959, i32 -1495919103, i32 351717905, i32 697754529, i32 1849071985, i32 1398190273, i32 1881644950, i32 1296545318, i32 182963446, i32 931652934, i32 -2052638378, i32 -1194913562, i32 -9999818, i32 -1039711354, i32 1079497815, i32 2100821479, i32 983009079, i32 133672583, i32 -1244171625, i32 -2001249497, i32 -820567561, i32 -227080121, i32 281479188, i32 765927844, i32 1778867060, i32 1466397380, i32 -448287020, i32 -668498076, i32 -1618477644, i32 -1561865212, i32 548881365, i32 500656741, i32 1517752501, i32 1729575173, i32 -717757163, i32 -396899163, i32 -1342720395, i32 -1835556923, i32 -384440101, i32 -730480277, i32 -1814709317, i32 -1363832309, i32 479546907, i32 569730987, i32 1716854139, i32 1530213579, i32 -647650534, i32 -469398870, i32 -1549406086, i32 -1631200822, i32 753206746, i32 293940330, i32 1445287610, i32 1799716618, i32 -1980399783, i32 -1265281303, i32 -214619079, i32 -833288823, i32 2088098201, i32 1091956777, i32 112560889, i32 1003856713, i32 -1182452584, i32 -2065359576, i32 -1018861576, i32 -31109560, i32 1275433560, i32 1902492648, i32 918929720, i32 195422344, i32 685033439, i32 364179055, i32 1377080511, i32 1869921551, i32 -581672673, i32 -533444433, i32 -1483459969, i32 -1695278129, i32 413436958, i32 633644462, i32 1650777982, i32 1594160846, i32 -316396834, i32 -800849042, i32 -1746634306, i32 -1434169330, i32 1211387997, i32 1968470509, i32 854852413, i32 261368461, i32 -1112213859, i32 -2133532883, i32 -948656643, i32 -99316659, i32 2017729436, i32 1160000044, i32 42223868, i32 1071931724, i32 -1916486308, i32 -1331391252, i32 -150671812, i32 -899364980], align 16
@_ZL20lodepng_crc32_table3 = internal unnamed_addr constant [256 x i32] [i32 0, i32 -1195612315, i32 -1442199413, i32 313896942, i32 -1889364137, i32 937357362, i32 627793884, i32 -1646839623, i32 -978048785, i32 2097696650, i32 1874714724, i32 -687765759, i32 1255587768, i32 -227878691, i32 -522225869, i32 1482887254, i32 1343838111, i32 -391827206, i32 -99573996, i32 1118632049, i32 -545537848, i32 1741137837, i32 1970407491, i32 -842109146, i32 -1783791760, i32 756094997, i32 1067759611, i32 -2028416866, i32 449832999, i32 -1569484990, i32 -1329192788, i32 142231497, i32 -1607291074, i32 412010587, i32 171665333, i32 -1299775280, i32 793786473, i32 -1746116852, i32 -2057703198, i32 1038456711, i32 1703315409, i32 -583343948, i32 -812691622, i32 1999841343, i32 -354152314, i32 1381529571, i32 1089329165, i32 -128860312, i32 -265553759, i32 1217896388, i32 1512189994, i32 -492939441, i32 2135519222, i32 -940242797, i32 -717183107, i32 1845280792, i32 899665998, i32 -1927039189, i32 -1617553211, i32 657096608, i32 -1157806311, i32 37822588, i32 284462994, i32 -1471616777, i32 -1693165507, i32 598228824, i32 824021174, i32 -1985873965, i32 343330666, i32 -1396004849, i32 -1098971167, i32 113467524, i32 1587572946, i32 -434366537, i32 -190203815, i32 1276501820, i32 -775755899, i32 1769898208, i32 2076913422, i32 -1015592853, i32 -888336478, i32 1941006535, i32 1627703081, i32 -642211764, i32 1148164341, i32 -53215344, i32 -295284610, i32 1457141531, i32 247015245, i32 -1241169880, i32 -1531908154, i32 470583459, i32 -2116308966, i32 963106687, i32 735213713, i32 -1821499404, i32 992409347, i32 -2087022490, i32 -1859174520, i32 697522413, i32 -1270587308, i32 217581361, i32 508405983, i32 -1494102086, i32 -23928852, i32 1177467017, i32 1419450215, i32 -332959742, i32 1911572667, i32 -917753890, i32 -604405712, i32 1665525589, i32 1799331996, i32 -746338311, i32 -1053399017, i32 2039091058, i32 -463652917, i32 1558270126, i32 1314193216, i32 -152528859, i32 -1366587277, i32 372764438, i32 75645176, i32 -1136777315, i32 568925988, i32 -1722451903, i32 -1948198993, i32 861712586, i32 -312887749, i32 1441124702, i32 1196457648, i32 -1304107, i32 1648042348, i32 -628668919, i32 -936187417, i32 1888390786, i32 686661332, i32 -1873675855, i32 -2098964897, i32 978858298, i32 -1483798141, i32 523464422, i32 226935048, i32 -1254447507, i32 -1119821404, i32 100435649, i32 390670639, i32 -1342878134, i32 841119475, i32 -1969352298, i32 -1741963656, i32 546822429, i32 2029308235, i32 -1068978642, i32 -755170880, i32 1782671013, i32 -141140452, i32 1328167289, i32 1570739863, i32 -450629134, i32 1298864389, i32 -170426784, i32 -412954226, i32 1608431339, i32 -1039561134, i32 2058742071, i32 1744848601, i32 -792976964, i32 -1998638614, i32 811816591, i32 584513889, i32 -1704288764, i32 129869501, i32 -1090403880, i32 -1380684234, i32 352848211, i32 494030490, i32 -1513215489, i32 -1216641519, i32 264757620, i32 -1844389427, i32 715964072, i32 941166918, i32 -2136639965, i32 -658086283, i32 1618608400, i32 1926213374, i32 -898381413, i32 1470427426, i32 -283601337, i32 -38979159, i32 1158766284, i32 1984818694, i32 -823031453, i32 -599513459, i32 1693991400, i32 -114329263, i32 1100160564, i32 1395044826, i32 -342174017, i32 -1275476247, i32 189112716, i32 435162722, i32 -1588827897, i32 1016811966, i32 -2077804837, i32 -1768777419, i32 774831696, i32 643086745, i32 -1628905732, i32 -1940033262, i32 887166583, i32 -1456066866, i32 294275499, i32 54519365, i32 -1149009632, i32 -471821962, i32 1532818963, i32 1240029693, i32 -246071656, i32 1820460577, i32 -734109372, i32 -963916118, i32 2117577167, i32 -696303304, i32 1858283101, i32 2088143283, i32 -993333546, i32 1495127663, i32 -509497078, i32 -216785180, i32 1269332353, i32 332098007, i32 -1418260814, i32 -1178427044, i32 25085497, i32 -1666580864, i32 605395429, i32 916469259, i32 -1910746770, i32 -2040129881, i32 1054503362, i32 745528876, i32 -1798063799, i32 151290352, i32 -1313282411, i32 -1559410309, i32 464596510, i32 1137851976, i32 -76654291, i32 -371460413, i32 1365741990, i32 -860837601, i32 1946996346, i32 1723425172, i32 -570095887], align 16
@_ZL20lodepng_crc32_table2 = internal unnamed_addr constant [256 x i32] [i32 0, i32 29518391, i32 59036782, i32 38190681, i32 118073564, i32 114017003, i32 76381362, i32 89069189, i32 236147128, i32 265370511, i32 228034006, i32 206958561, i32 152762724, i32 148411219, i32 178138378, i32 190596925, i32 472294256, i32 501532999, i32 530741022, i32 509615401, i32 456068012, i32 451764635, i32 413917122, i32 426358261, i32 305525448, i32 334993663, i32 296822438, i32 275991697, i32 356276756, i32 352202787, i32 381193850, i32 393929805, i32 944588512, i32 965684439, i32 1003065998, i32 973863097, i32 1061482044, i32 1049003019, i32 1019230802, i32 1023561829, i32 912136024, i32 933002607, i32 903529270, i32 874031361, i32 827834244, i32 815125939, i32 852716522, i32 856752605, i32 611050896, i32 631869351, i32 669987326, i32 640506825, i32 593644876, i32 580921211, i32 551983394, i32 556069653, i32 712553512, i32 733666847, i32 704405574, i32 675154545, i32 762387700, i32 749958851, i32 787859610, i32 792175277, i32 1889177024, i32 1901651959, i32 1931368878, i32 1927033753, i32 2006131996, i32 1985040171, i32 1947726194, i32 1976933189, i32 2122964088, i32 2135668303, i32 2098006038, i32 2093965857, i32 2038461604, i32 2017599123, i32 2047123658, i32 2076625661, i32 1824272048, i32 1836991623, i32 1866005214, i32 1861914857, i32 1807058540, i32 1786244187, i32 1748062722, i32 1777547317, i32 1655668488, i32 1668093247, i32 1630251878, i32 1625932113, i32 1705433044, i32 1684323811, i32 1713505210, i32 1742760333, i32 1222101792, i32 1226154263, i32 1263738702, i32 1251046777, i32 1339974652, i32 1310460363, i32 1281013650, i32 1301863845, i32 1187289752, i32 1191637167, i32 1161842422, i32 1149379777, i32 1103966788, i32 1074747507, i32 1112139306, i32 1133218845, i32 1425107024, i32 1429406311, i32 1467333694, i32 1454888457, i32 1408811148, i32 1379576507, i32 1350309090, i32 1371438805, i32 1524775400, i32 1528845279, i32 1499917702, i32 1487177649, i32 1575719220, i32 1546255107, i32 1584350554, i32 1605185389, i32 -516613248, i32 -520654409, i32 -491663378, i32 -478960167, i32 -432229540, i32 -402728597, i32 -440899790, i32 -461763323, i32 -282703304, i32 -287039473, i32 -324886954, i32 -312413087, i32 -399514908, i32 -370308909, i32 -341100918, i32 -362193731, i32 -49039120, i32 -53357881, i32 -23630690, i32 -11204951, i32 -98955220, i32 -69699045, i32 -107035582, i32 -128143755, i32 -218044088, i32 -222133377, i32 -259769050, i32 -247048431, i32 -200719980, i32 -171234397, i32 -141715974, i32 -162529331, i32 -646423200, i32 -658884777, i32 -620984050, i32 -616635591, i32 -562956868, i32 -541876341, i32 -571137582, i32 -600355867, i32 -680850216, i32 -693541137, i32 -722478922, i32 -718425471, i32 -798841852, i32 -777990605, i32 -739872662, i32 -769385891, i32 -983630320, i32 -996371417, i32 -958780802, i32 -954711991, i32 -1034463540, i32 -1013629701, i32 -1043103070, i32 -1072568171, i32 -884101208, i32 -896547425, i32 -926319674, i32 -922021391, i32 -867956876, i32 -846828221, i32 -809446630, i32 -838682323, i32 -1850763712, i32 -1871840137, i32 -1842658770, i32 -1813436391, i32 -1767489892, i32 -1755032405, i32 -1792873742, i32 -1797226299, i32 -1615017992, i32 -1635865137, i32 -1674046570, i32 -1644529247, i32 -1732939996, i32 -1720253165, i32 -1691239606, i32 -1695297155, i32 -1920387792, i32 -1941217529, i32 -1911692962, i32 -1882223767, i32 -1971282452, i32 -1958545445, i32 -1996207742, i32 -2000280651, i32 -2087033720, i32 -2108158273, i32 -2145472282, i32 -2116232495, i32 -2070688684, i32 -2058246557, i32 -2028529606, i32 -2032831987, i32 -1444753248, i32 -1474250089, i32 -1436154674, i32 -1415287047, i32 -1360299908, i32 -1356262837, i32 -1385190382, i32 -1397897691, i32 -1477345000, i32 -1506546897, i32 -1535814282, i32 -1514717375, i32 -1594349116, i32 -1590017037, i32 -1552089686, i32 -1564567651, i32 -1245416496, i32 -1274668569, i32 -1237276738, i32 -1216164471, i32 -1295131892, i32 -1290817221, i32 -1320611998, i32 -1333041835, i32 -1143528856, i32 -1173010337, i32 -1202457082, i32 -1181639631, i32 -1126266188, i32 -1122180989, i32 -1084596518, i32 -1097321235], align 16
@_ZL20lodepng_crc32_table1 = internal unnamed_addr constant [256 x i32] [i32 0, i32 421212481, i32 842424962, i32 724390851, i32 1684849924, i32 2105013317, i32 1448781702, i32 1329698503, i32 -925267448, i32 -775767223, i32 -84940662, i32 -470492725, i32 -1397403892, i32 -1246855603, i32 -1635570290, i32 -2020074289, i32 1254232657, i32 1406739216, i32 2029285587, i32 1643069842, i32 783210325, i32 934667796, i32 479770071, i32 92505238, i32 -2112120743, i32 -1694455528, i32 -1339163941, i32 -1456026726, i32 -428384931, i32 -9671652, i32 -733921313, i32 -849736034, i32 -1786501982, i32 -1935731229, i32 -1481488864, i32 -1096190111, i32 -236396122, i32 -386674457, i32 -1008827612, i32 -624577947, i32 1566420650, i32 1145479147, i32 1869335592, i32 1987116393, i32 959540142, i32 539646703, i32 185010476, i32 303839341, i32 -549046541, i32 -966981710, i32 -311405455, i32 -194288336, i32 -1154812937, i32 -1573797194, i32 -1994616459, i32 -1878548428, i32 396344571, i32 243568058, i32 631889529, i32 1018359608, i32 1945336319, i32 1793607870, i32 1103436669, i32 1490954812, i32 -260485371, i32 -379421116, i32 -1034998393, i32 -615244602, i32 -1810527743, i32 -1928414400, i32 -1507596157, i32 -1086793278, i32 950060301, i32 565965900, i32 177645455, i32 328046286, i32 1556873225, i32 1171730760, i32 1861902987, i32 2011255754, i32 -1162125996, i32 -1549767659, i32 -2004009002, i32 -1852436841, i32 -556296112, i32 -942888687, i32 -320734510, i32 -168113261, i32 1919080284, i32 1803150877, i32 1079293406, i32 1498383519, i32 370020952, i32 253043481, i32 607678682, i32 1025720731, i32 1711106983, i32 2095471334, i32 1472923941, i32 1322268772, i32 26324643, i32 411738082, i32 866634785, i32 717028704, i32 -1390091857, i32 -1270886162, i32 -1626176723, i32 -2046184852, i32 -918018901, i32 -799861270, i32 -75610583, i32 -496666776, i32 792689142, i32 908347575, i32 487136116, i32 68299317, i32 1263779058, i32 1380486579, i32 2036719216, i32 1618931505, i32 -404294658, i32 -16923969, i32 -707751556, i32 -859070403, i32 -2088093958, i32 -1701771333, i32 -1313057672, i32 -1465424583, i32 998479947, i32 580430090, i32 162921161, i32 279890824, i32 1609522511, i32 1190423566, i32 1842954189, i32 1958874764, i32 -212200893, i32 -364829950, i32 -1049857855, i32 -663273088, i32 -1758013625, i32 -1909594618, i32 -1526680123, i32 -1139047292, i32 1900120602, i32 1750776667, i32 1131931800, i32 1517083097, i32 355290910, i32 204897887, i32 656092572, i32 1040194781, i32 -1181220846, i32 -1602014893, i32 -1951505776, i32 -1833610287, i32 -571161322, i32 -990907305, i32 -272455788, i32 -153512235, i32 -1375224599, i32 -1222865496, i32 -1674453397, i32 -2060783830, i32 -898926099, i32 -747616084, i32 -128115857, i32 -515495378, i32 1725839073, i32 2143618976, i32 1424512099, i32 1307796770, i32 45282277, i32 464110244, i32 813994343, i32 698327078, i32 -456806728, i32 -35741703, i32 -688665542, i32 -806814341, i32 -2136380484, i32 -1716364547, i32 -1298200258, i32 -1417398145, i32 740041904, i32 889656817, i32 506086962, i32 120682355, i32 1215357364, i32 1366020341, i32 2051441462, i32 1667084919, i32 -872753330, i32 -756947441, i32 -104024628, i32 -522746739, i32 -1349119414, i32 -1232264437, i32 -1650429752, i32 -2068102775, i32 52649286, i32 439905287, i32 823476164, i32 672009861, i32 1733269570, i32 2119477507, i32 1434057408, i32 1281543041, i32 -2126985953, i32 -1742474146, i32 -1290885219, i32 -1441425700, i32 -447479781, i32 -61918886, i32 -681418087, i32 -830909480, i32 1239502615, i32 1358593622, i32 2077699477, i32 1657543892, i32 764250643, i32 882293586, i32 532408465, i32 111204816, i32 1585378284, i32 1197851309, i32 1816695150, i32 1968414767, i32 974272232, i32 587794345, i32 136598634, i32 289367339, i32 -1767409180, i32 -1883486043, i32 -1533994138, i32 -1115018713, i32 -221528864, i32 -338653791, i32 -1057104286, i32 -639176925, i32 347922877, i32 229101820, i32 646611775, i32 1066513022, i32 1892689081, i32 1774917112, i32 1122387515, i32 1543337850, i32 -597333067, i32 -981574924, i32 -296548041, i32 -146261898, i32 -1207325007, i32 -1592614928, i32 -1975530445, i32 -1826292366], align 16
@_ZL20lodepng_crc32_table0 = internal unnamed_addr constant [256 x i32] [i32 0, i32 1996959894, i32 -301047508, i32 -1727442502, i32 124634137, i32 1886057615, i32 -379345611, i32 -1637575261, i32 249268274, i32 2044508324, i32 -522852066, i32 -1747789432, i32 162941995, i32 2125561021, i32 -407360249, i32 -1866523247, i32 498536548, i32 1789927666, i32 -205950648, i32 -2067906082, i32 450548861, i32 1843258603, i32 -187386543, i32 -2083289657, i32 325883990, i32 1684777152, i32 -43845254, i32 -1973040660, i32 335633487, i32 1661365465, i32 -99664541, i32 -1928851979, i32 997073096, i32 1281953886, i32 -715111964, i32 -1570279054, i32 1006888145, i32 1258607687, i32 -770865667, i32 -1526024853, i32 901097722, i32 1119000684, i32 -608450090, i32 -1396901568, i32 853044451, i32 1172266101, i32 -589951537, i32 -1412350631, i32 651767980, i32 1373503546, i32 -925412992, i32 -1076862698, i32 565507253, i32 1454621731, i32 -809855591, i32 -1195530993, i32 671266974, i32 1594198024, i32 -972236366, i32 -1324619484, i32 795835527, i32 1483230225, i32 -1050600021, i32 -1234817731, i32 1994146192, i32 31158534, i32 -1731059524, i32 -271249366, i32 1907459465, i32 112637215, i32 -1614814043, i32 -390540237, i32 2013776290, i32 251722036, i32 -1777751922, i32 -519137256, i32 2137656763, i32 141376813, i32 -1855689577, i32 -429695999, i32 1802195444, i32 476864866, i32 -2056965928, i32 -228458418, i32 1812370925, i32 453092731, i32 -2113342271, i32 -183516073, i32 1706088902, i32 314042704, i32 -1950435094, i32 -54949764, i32 1658658271, i32 366619977, i32 -1932296973, i32 -69972891, i32 1303535960, i32 984961486, i32 -1547960204, i32 -725929758, i32 1256170817, i32 1037604311, i32 -1529756563, i32 -740887301, i32 1131014506, i32 879679996, i32 -1385723834, i32 -631195440, i32 1141124467, i32 855842277, i32 -1442165665, i32 -586318647, i32 1342533948, i32 654459306, i32 -1106571248, i32 -921952122, i32 1466479909, i32 544179635, i32 -1184443383, i32 -832445281, i32 1591671054, i32 702138776, i32 -1328506846, i32 -942167884, i32 1504918807, i32 783551873, i32 -1212326853, i32 -1061524307, i32 -306674912, i32 -1698712650, i32 62317068, i32 1957810842, i32 -355121351, i32 -1647151185, i32 81470997, i32 1943803523, i32 -480048366, i32 -1805370492, i32 225274430, i32 2053790376, i32 -468791541, i32 -1828061283, i32 167816743, i32 2097651377, i32 -267414716, i32 -2029476910, i32 503444072, i32 1762050814, i32 -144550051, i32 -2140837941, i32 426522225, i32 1852507879, i32 -19653770, i32 -1982649376, i32 282753626, i32 1742555852, i32 -105259153, i32 -1900089351, i32 397917763, i32 1622183637, i32 -690576408, i32 -1580100738, i32 953729732, i32 1340076626, i32 -776247311, i32 -1497606297, i32 1068828381, i32 1219638859, i32 -670225446, i32 -1358292148, i32 906185462, i32 1090812512, i32 -547295293, i32 -1469587627, i32 829329135, i32 1181335161, i32 -882789492, i32 -1134132454, i32 628085408, i32 1382605366, i32 -871598187, i32 -1156888829, i32 570562233, i32 1426400815, i32 -977650754, i32 -1296233688, i32 733239954, i32 1555261956, i32 -1026031705, i32 -1244606671, i32 752459403, i32 1541320221, i32 -1687895376, i32 -328994266, i32 1969922972, i32 40735498, i32 -1677130071, i32 -351390145, i32 1913087877, i32 83908371, i32 -1782625662, i32 -491226604, i32 2075208622, i32 213261112, i32 -1831694693, i32 -438977011, i32 2094854071, i32 198958881, i32 -2032938284, i32 -237706686, i32 1759359992, i32 534414190, i32 -2118248755, i32 -155638181, i32 1873836001, i32 414664567, i32 -2012718362, i32 -15766928, i32 1711684554, i32 285281116, i32 -1889165569, i32 -127750551, i32 1634467795, i32 376229701, i32 -1609899400, i32 -686959890, i32 1308918612, i32 956543938, i32 -1486412191, i32 -799009033, i32 1231636301, i32 1047427035, i32 -1362007478, i32 -640263460, i32 1088359270, i32 936918000, i32 -1447252397, i32 -558129467, i32 1202900863, i32 817233897, i32 -1111625188, i32 -893730166, i32 1404277552, i32 615818150, i32 -1160759803, i32 -841546093, i32 1423857449, i32 601450431, i32 -1285129682, i32 -1000256840, i32 1567103746, i32 711928724, i32 -1274298825, i32 -1022587231, i32 1510334235, i32 755167117], align 16
@.str.2 = private unnamed_addr constant [5 x i8] c"IHDR\00", align 1
@.str.6 = private unnamed_addr constant [5 x i8] c"tEXt\00", align 1
@.str.7 = private unnamed_addr constant [5 x i8] c"zTXt\00", align 1
@.str.8 = private unnamed_addr constant [5 x i8] c"iTXt\00", align 1
@.str.9 = private unnamed_addr constant [5 x i8] c"tIME\00", align 1
@.str.10 = private unnamed_addr constant [5 x i8] c"pHYs\00", align 1
@.str.11 = private unnamed_addr constant [5 x i8] c"gAMA\00", align 1
@.str.12 = private unnamed_addr constant [5 x i8] c"cHRM\00", align 1
@.str.13 = private unnamed_addr constant [5 x i8] c"sRGB\00", align 1
@.str.14 = private unnamed_addr constant [5 x i8] c"iCCP\00", align 1
@.str.15 = private unnamed_addr constant [5 x i8] c"sBIT\00", align 1
@.str.16 = private unnamed_addr constant [8 x i8] c"LodePNG\00", align 1
@.str.17 = private unnamed_addr constant [29 x i8] c"no error, everything went ok\00", align 1
@.str.18 = private unnamed_addr constant [17 x i8] c"nothing done yet\00", align 1
@.str.19 = private unnamed_addr constant [53 x i8] c"end of input memory reached without huffman end code\00", align 1
@.str.20 = private unnamed_addr constant [56 x i8] c"error in code tree made it jump outside of huffman tree\00", align 1
@.str.21 = private unnamed_addr constant [47 x i8] c"problem while processing dynamic deflate block\00", align 1
@.str.22 = private unnamed_addr constant [52 x i8] c"invalid code while processing dynamic deflate block\00", align 1
@.str.23 = private unnamed_addr constant [49 x i8] c"end of out buffer memory reached while inflating\00", align 1
@.str.24 = private unnamed_addr constant [38 x i8] c"invalid distance code while inflating\00", align 1
@.str.25 = private unnamed_addr constant [55 x i8] c"invalid deflate block BTYPE encountered while decoding\00", align 1
@.str.26 = private unnamed_addr constant [54 x i8] c"NLEN is not ones complement of LEN in a deflate block\00", align 1
@.str.27 = private unnamed_addr constant [48 x i8] c"end of in buffer memory reached while inflating\00", align 1
@.str.28 = private unnamed_addr constant [30 x i8] c"invalid FCHECK in zlib header\00", align 1
@.str.29 = private unnamed_addr constant [42 x i8] c"invalid compression method in zlib header\00", align 1
@.str.30 = private unnamed_addr constant [61 x i8] c"FDICT encountered in zlib header while it's not used for PNG\00", align 1
@.str.31 = private unnamed_addr constant [38 x i8] c"PNG file is smaller than a PNG header\00", align 1
@.str.32 = private unnamed_addr constant [50 x i8] c"incorrect PNG signature, it's no PNG or corrupted\00", align 1
@.str.33 = private unnamed_addr constant [36 x i8] c"first chunk is not the header chunk\00", align 1
@.str.34 = private unnamed_addr constant [56 x i8] c"chunk length too large, chunk broken off at end of file\00", align 1
@.str.35 = private unnamed_addr constant [30 x i8] c"illegal PNG color type or bpp\00", align 1
@.str.36 = private unnamed_addr constant [31 x i8] c"illegal PNG compression method\00", align 1
@.str.37 = private unnamed_addr constant [26 x i8] c"illegal PNG filter method\00", align 1
@.str.38 = private unnamed_addr constant [29 x i8] c"illegal PNG interlace method\00", align 1
@.str.39 = private unnamed_addr constant [60 x i8] c"chunk length of a chunk is too large or the chunk too small\00", align 1
@.str.40 = private unnamed_addr constant [36 x i8] c"illegal PNG filter type encountered\00", align 1
@.str.41 = private unnamed_addr constant [44 x i8] c"illegal bit depth for this color type given\00", align 1
@.str.42 = private unnamed_addr constant [36 x i8] c"the palette is too small or too big\00", align 1
@.str.43 = private unnamed_addr constant [61 x i8] c"tRNS chunk before PLTE or has more entries than palette size\00", align 1
@.str.44 = private unnamed_addr constant [46 x i8] c"tRNS chunk has wrong size for grayscale image\00", align 1
@.str.45 = private unnamed_addr constant [40 x i8] c"tRNS chunk has wrong size for RGB image\00", align 1
@.str.46 = private unnamed_addr constant [65 x i8] c"tRNS chunk appeared while it was not allowed for this color type\00", align 1
@.str.47 = private unnamed_addr constant [44 x i8] c"bKGD chunk has wrong size for palette image\00", align 1
@.str.48 = private unnamed_addr constant [46 x i8] c"bKGD chunk has wrong size for grayscale image\00", align 1
@.str.49 = private unnamed_addr constant [40 x i8] c"bKGD chunk has wrong size for RGB image\00", align 1
@.str.50 = private unnamed_addr constant [72 x i8] c"empty input buffer given to decoder. Maybe caused by non-existing file?\00", align 1
@.str.51 = private unnamed_addr constant [57 x i8] c"jumped past memory while generating dynamic huffman tree\00", align 1
@.str.52 = private unnamed_addr constant [49 x i8] c"jumped past memory while inflating huffman block\00", align 1
@.str.53 = private unnamed_addr constant [35 x i8] c"jumped past memory while inflating\00", align 1
@.str.54 = private unnamed_addr constant [28 x i8] c"size of zlib data too small\00", align 1
@.str.55 = private unnamed_addr constant [58 x i8] c"repeat symbol in tree while there was no value symbol yet\00", align 1
@.str.56 = private unnamed_addr constant [47 x i8] c"jumped past tree while generating huffman tree\00", align 1
@.str.57 = private unnamed_addr constant [76 x i8] c"given output image colortype or bitdepth not supported for color conversion\00", align 1
@.str.58 = private unnamed_addr constant [55 x i8] c"invalid CRC encountered (checking CRC can be disabled)\00", align 1
@.str.59 = private unnamed_addr constant [63 x i8] c"invalid ADLER32 encountered (checking ADLER32 can be disabled)\00", align 1
@.str.60 = private unnamed_addr constant [41 x i8] c"requested color conversion not supported\00", align 1
@.str.61 = private unnamed_addr constant [75 x i8] c"invalid window size given in the settings of the encoder (must be 0-32768)\00", align 1
@.str.62 = private unnamed_addr constant [81 x i8] c"invalid BTYPE given in the settings of the encoder (only 0, 1 and 2 are allowed)\00", align 1
@.str.63 = private unnamed_addr constant [49 x i8] c"conversion from color to grayscale not supported\00", align 1
@.str.64 = private unnamed_addr constant [78 x i8] c"length of a chunk too long, max allowed for PNG is 2147483647 bytes per chunk\00", align 1
@.str.65 = private unnamed_addr constant [58 x i8] c"the length of the END symbol 256 in the Huffman tree is 0\00", align 1
@.str.66 = private unnamed_addr constant [95 x i8] c"the length of a text chunk keyword given to the encoder is longer than the maximum of 79 bytes\00", align 1
@.str.67 = private unnamed_addr constant [94 x i8] c"the length of a text chunk keyword given to the encoder is smaller than the minimum of 1 byte\00", align 1
@.str.68 = private unnamed_addr constant [89 x i8] c"tried to encode a PLTE chunk with a palette that has less than 1 or more than 256 colors\00", align 1
@.str.69 = private unnamed_addr constant [67 x i8] c"unknown chunk type with 'critical' flag encountered by the decoder\00", align 1
@.str.70 = private unnamed_addr constant [57 x i8] c"invalid interlace mode given to encoder (must be 0 or 1)\00", align 1
@.str.71 = private unnamed_addr constant [93 x i8] c"while decoding, invalid compression method encountering in zTXt or iTXt chunk (it must be 0)\00", align 1
@.str.72 = private unnamed_addr constant [24 x i8] c"invalid tIME chunk size\00", align 1
@.str.73 = private unnamed_addr constant [24 x i8] c"invalid pHYs chunk size\00", align 1
@.str.74 = private unnamed_addr constant [57 x i8] c"no null termination char found while decoding text chunk\00", align 1
@.str.75 = private unnamed_addr constant [47 x i8] c"iTXt chunk too short to contain required bytes\00", align 1
@.str.76 = private unnamed_addr constant [32 x i8] c"integer overflow in buffer size\00", align 1
@.str.77 = private unnamed_addr constant [32 x i8] c"failed to open file for reading\00", align 1
@.str.78 = private unnamed_addr constant [32 x i8] c"failed to open file for writing\00", align 1
@.str.79 = private unnamed_addr constant [35 x i8] c"tried creating a tree of 0 symbols\00", align 1
@.str.80 = private unnamed_addr constant [37 x i8] c"lazy matching at pos 0 is impossible\00", align 1
@.str.81 = private unnamed_addr constant [93 x i8] c"color conversion to palette requested while a color isn't in palette, or index out of bounds\00", align 1
@.str.82 = private unnamed_addr constant [25 x i8] c"memory allocation failed\00", align 1
@.str.83 = private unnamed_addr constant [58 x i8] c"given image too small to contain all pixels to be encoded\00", align 1
@.str.84 = private unnamed_addr constant [50 x i8] c"impossible offset in lz77 encoding (internal bug)\00", align 1
@.str.85 = private unnamed_addr constant [81 x i8] c"must provide custom zlib function pointer if LODEPNG_COMPILE_ZLIB is not defined\00", align 1
@.str.86 = private unnamed_addr constant [73 x i8] c"invalid filter strategy given for LodePNGEncoderSettings.filter_strategy\00", align 1
@.str.87 = private unnamed_addr constant [58 x i8] c"text chunk keyword too short or long: must have size 1-79\00", align 1
@.str.88 = private unnamed_addr constant [34 x i8] c"windowsize must be a power of two\00", align 1
@.str.89 = private unnamed_addr constant [31 x i8] c"invalid decompressed idat size\00", align 1
@.str.90 = private unnamed_addr constant [40 x i8] c"integer overflow due to too many pixels\00", align 1
@.str.91 = private unnamed_addr constant [32 x i8] c"zero width or height is invalid\00", align 1
@.str.92 = private unnamed_addr constant [42 x i8] c"header chunk must have a size of 13 bytes\00", align 1
@.str.93 = private unnamed_addr constant [47 x i8] c"integer overflow with combined idat chunk size\00", align 1
@.str.94 = private unnamed_addr constant [24 x i8] c"invalid gAMA chunk size\00", align 1
@.str.95 = private unnamed_addr constant [24 x i8] c"invalid cHRM chunk size\00", align 1
@.str.96 = private unnamed_addr constant [24 x i8] c"invalid sRGB chunk size\00", align 1
@.str.97 = private unnamed_addr constant [30 x i8] c"invalid sRGB rendering intent\00", align 1
@.str.98 = private unnamed_addr constant [78 x i8] c"invalid ICC profile color type, the PNG specification only allows RGB or GRAY\00", align 1
@.str.99 = private unnamed_addr constant [84 x i8] c"PNG specification does not allow RGB ICC profile on gray color types and vice versa\00", align 1
@.str.100 = private unnamed_addr constant [82 x i8] c"not allowed to set grayscale ICC profile with colored pixels by PNG specification\00", align 1
@.str.101 = private unnamed_addr constant [70 x i8] c"invalid palette index in bKGD chunk. Maybe it came before PLTE chunk?\00", align 1
@.str.102 = private unnamed_addr constant [68 x i8] c"invalid bKGD color while encoding (e.g. palette index out of range)\00", align 1
@.str.103 = private unnamed_addr constant [28 x i8] c"integer overflow of bitsize\00", align 1
@.str.104 = private unnamed_addr constant [55 x i8] c"PNG file must have PLTE chunk if color type is palette\00", align 1
@.str.105 = private unnamed_addr constant [81 x i8] c"color convert from palette mode requested without setting the palette data in it\00", align 1
@.str.106 = private unnamed_addr constant [47 x i8] c"tried to add more than 256 values to a palette\00", align 1
@.str.107 = private unnamed_addr constant [77 x i8] c"tried to decompress zlib or deflate data larger than desired max_output_size\00", align 1
@.str.108 = private unnamed_addr constant [44 x i8] c"custom zlib or inflate decompression failed\00", align 1
@.str.109 = private unnamed_addr constant [42 x i8] c"custom zlib or deflate compression failed\00", align 1
@.str.110 = private unnamed_addr constant [35 x i8] c"compressed text unreasonably large\00", align 1
@.str.111 = private unnamed_addr constant [31 x i8] c"ICC profile unreasonably large\00", align 1
@.str.112 = private unnamed_addr constant [58 x i8] c"sBIT chunk has wrong size for the color type of the image\00", align 1
@.str.113 = private unnamed_addr constant [24 x i8] c"sBIT value out of range\00", align 1
@.str.114 = private unnamed_addr constant [19 x i8] c"unknown error code\00", align 1
@.str.115 = private unnamed_addr constant [3 x i8] c"rb\00", align 1
@_ZL10LENGTHBASE = internal unnamed_addr constant [29 x i32] [i32 3, i32 4, i32 5, i32 6, i32 7, i32 8, i32 9, i32 10, i32 11, i32 13, i32 15, i32 17, i32 19, i32 23, i32 27, i32 31, i32 35, i32 43, i32 51, i32 59, i32 67, i32 83, i32 99, i32 115, i32 131, i32 163, i32 195, i32 227, i32 258], align 16
@_ZL11LENGTHEXTRA = internal unnamed_addr constant [29 x i32] [i32 0, i32 0, i32 0, i32 0, i32 0, i32 0, i32 0, i32 0, i32 1, i32 1, i32 1, i32 1, i32 2, i32 2, i32 2, i32 2, i32 3, i32 3, i32 3, i32 3, i32 4, i32 4, i32 4, i32 4, i32 5, i32 5, i32 5, i32 5, i32 0], align 16
@_ZL12DISTANCEBASE = internal unnamed_addr constant [30 x i32] [i32 1, i32 2, i32 3, i32 4, i32 5, i32 7, i32 9, i32 13, i32 17, i32 25, i32 33, i32 49, i32 65, i32 97, i32 129, i32 193, i32 257, i32 385, i32 513, i32 769, i32 1025, i32 1537, i32 2049, i32 3073, i32 4097, i32 6145, i32 8193, i32 12289, i32 16385, i32 24577], align 16
@_ZL13DISTANCEEXTRA = internal unnamed_addr constant [30 x i32] [i32 0, i32 0, i32 0, i32 0, i32 1, i32 1, i32 2, i32 2, i32 3, i32 3, i32 4, i32 4, i32 5, i32 5, i32 6, i32 6, i32 7, i32 7, i32 8, i32 8, i32 9, i32 9, i32 10, i32 10, i32 11, i32 11, i32 12, i32 12, i32 13, i32 13], align 16
@_ZL10CLCL_ORDER = internal unnamed_addr constant [19 x i32] [i32 16, i32 17, i32 18, i32 0, i32 8, i32 7, i32 9, i32 6, i32 10, i32 5, i32 11, i32 4, i32 12, i32 3, i32 13, i32 2, i32 14, i32 1, i32 15], align 16
@_ZL8ADAM7_DX = internal unnamed_addr constant [7 x i32] [i32 8, i32 8, i32 4, i32 4, i32 2, i32 2, i32 1], align 16
@_ZL8ADAM7_IX = internal unnamed_addr constant [7 x i32] [i32 0, i32 4, i32 0, i32 2, i32 0, i32 1, i32 0], align 16
@_ZL8ADAM7_DY = internal unnamed_addr constant [7 x i32] [i32 8, i32 8, i32 8, i32 4, i32 4, i32 2, i32 2], align 16
@_ZL8ADAM7_IY = internal unnamed_addr constant [7 x i32] [i32 0, i32 0, i32 4, i32 0, i32 2, i32 0, i32 1], align 16
@.str.118 = private unnamed_addr constant [23 x i8] c"vector::_M_fill_insert\00", align 1
@.str.119 = private unnamed_addr constant [24 x i8] c"vector::_M_range_insert\00", align 1
@switch.table._ZL18checkColorValidity16LodePNGColorTypej = private unnamed_addr constant [8 x i32] [i32 0, i32 0, i32 37, i32 0, i32 37, i32 37, i32 37, i32 0], align 4
@switch.table._Z18lodepng_error_textj = private unnamed_addr constant [116 x i8*] [i8* getelementptr inbounds ([29 x i8], [29 x i8]* @.str.17, i64 0, i64 0), i8* getelementptr inbounds ([17 x i8], [17 x i8]* @.str.18, i64 0, i64 0), i8* getelementptr inbounds ([19 x i8], [19 x i8]* @.str.114, i64 0, i64 0), i8* getelementptr inbounds ([19 x i8], [19 x i8]* @.str.114, i64 0, i64 0), i8* getelementptr inbounds ([19 x i8], [19 x i8]* @.str.114, i64 0, i64 0), i8* getelementptr inbounds ([19 x i8], [19 x i8]* @.str.114, i64 0, i64 0), i8* getelementptr inbounds ([19 x i8], [19 x i8]* @.str.114, i64 0, i64 0), i8* getelementptr inbounds ([19 x i8], [19 x i8]* @.str.114, i64 0, i64 0), i8* getelementptr inbounds ([19 x i8], [19 x i8]* @.str.114, i64 0, i64 0), i8* getelementptr inbounds ([19 x i8], [19 x i8]* @.str.114, i64 0, i64 0), i8* getelementptr inbounds ([53 x i8], [53 x i8]* @.str.19, i64 0, i64 0), i8* getelementptr inbounds ([56 x i8], [56 x i8]* @.str.20, i64 0, i64 0), i8* getelementptr inbounds ([19 x i8], [19 x i8]* @.str.114, i64 0, i64 0), i8* getelementptr inbounds ([47 x i8], [47 x i8]* @.str.21, i64 0, i64 0), i8* getelementptr inbounds ([47 x i8], [47 x i8]* @.str.21, i64 0, i64 0), i8* getelementptr inbounds ([47 x i8], [47 x i8]* @.str.21, i64 0, i64 0), i8* getelementptr inbounds ([52 x i8], [52 x i8]* @.str.22, i64 0, i64 0), i8* getelementptr inbounds ([49 x i8], [49 x i8]* @.str.23, i64 0, i64 0), i8* getelementptr inbounds ([38 x i8], [38 x i8]* @.str.24, i64 0, i64 0), i8* getelementptr inbounds ([49 x i8], [49 x i8]* @.str.23, i64 0, i64 0), i8* getelementptr inbounds ([55 x i8], [55 x i8]* @.str.25, i64 0, i64 0), i8* getelementptr inbounds ([54 x i8], [54 x i8]* @.str.26, i64 0, i64 0), i8* getelementptr inbounds ([49 x i8], [49 x i8]* @.str.23, i64 0, i64 0), i8* getelementptr inbounds ([48 x i8], [48 x i8]* @.str.27, i64 0, i64 0), i8* getelementptr inbounds ([30 x i8], [30 x i8]* @.str.28, i64 0, i64 0), i8* getelementptr inbounds ([42 x i8], [42 x i8]* @.str.29, i64 0, i64 0), i8* getelementptr inbounds ([61 x i8], [61 x i8]* @.str.30, i64 0, i64 0), i8* getelementptr inbounds ([38 x i8], [38 x i8]* @.str.31, i64 0, i64 0), i8* getelementptr inbounds ([50 x i8], [50 x i8]* @.str.32, i64 0, i64 0), i8* getelementptr inbounds ([36 x i8], [36 x i8]* @.str.33, i64 0, i64 0), i8* getelementptr inbounds ([56 x i8], [56 x i8]* @.str.34, i64 0, i64 0), i8* getelementptr inbounds ([30 x i8], [30 x i8]* @.str.35, i64 0, i64 0), i8* getelementptr inbounds ([31 x i8], [31 x i8]* @.str.36, i64 0, i64 0), i8* getelementptr inbounds ([26 x i8], [26 x i8]* @.str.37, i64 0, i64 0), i8* getelementptr inbounds ([29 x i8], [29 x i8]* @.str.38, i64 0, i64 0), i8* getelementptr inbounds ([60 x i8], [60 x i8]* @.str.39, i64 0, i64 0), i8* getelementptr inbounds ([36 x i8], [36 x i8]* @.str.40, i64 0, i64 0), i8* getelementptr inbounds ([44 x i8], [44 x i8]* @.str.41, i64 0, i64 0), i8* getelementptr inbounds ([36 x i8], [36 x i8]* @.str.42, i64 0, i64 0), i8* getelementptr inbounds ([61 x i8], [61 x i8]* @.str.43, i64 0, i64 0), i8* getelementptr inbounds ([46 x i8], [46 x i8]* @.str.44, i64 0, i64 0), i8* getelementptr inbounds ([40 x i8], [40 x i8]* @.str.45, i64 0, i64 0), i8* getelementptr inbounds ([65 x i8], [65 x i8]* @.str.46, i64 0, i64 0), i8* getelementptr inbounds ([44 x i8], [44 x i8]* @.str.47, i64 0, i64 0), i8* getelementptr inbounds ([46 x i8], [46 x i8]* @.str.48, i64 0, i64 0), i8* getelementptr inbounds ([40 x i8], [40 x i8]* @.str.49, i64 0, i64 0), i8* getelementptr inbounds ([19 x i8], [19 x i8]* @.str.114, i64 0, i64 0), i8* getelementptr inbounds ([19 x i8], [19 x i8]* @.str.114, i64 0, i64 0), i8* getelementptr inbounds ([72 x i8], [72 x i8]* @.str.50, i64 0, i64 0), i8* getelementptr inbounds ([57 x i8], [57 x i8]* @.str.51, i64 0, i64 0), i8* getelementptr inbounds ([57 x i8], [57 x i8]* @.str.51, i64 0, i64 0), i8* getelementptr inbounds ([49 x i8], [49 x i8]* @.str.52, i64 0, i64 0), i8* getelementptr inbounds ([35 x i8], [35 x i8]* @.str.53, i64 0, i64 0), i8* getelementptr inbounds ([28 x i8], [28 x i8]* @.str.54, i64 0, i64 0), i8* getelementptr inbounds ([58 x i8], [58 x i8]* @.str.55, i64 0, i64 0), i8* getelementptr inbounds ([47 x i8], [47 x i8]* @.str.56, i64 0, i64 0), i8* getelementptr inbounds ([76 x i8], [76 x i8]* @.str.57, i64 0, i64 0), i8* getelementptr inbounds ([55 x i8], [55 x i8]* @.str.58, i64 0, i64 0), i8* getelementptr inbounds ([63 x i8], [63 x i8]* @.str.59, i64 0, i64 0), i8* getelementptr inbounds ([41 x i8], [41 x i8]* @.str.60, i64 0, i64 0), i8* getelementptr inbounds ([75 x i8], [75 x i8]* @.str.61, i64 0, i64 0), i8* getelementptr inbounds ([81 x i8], [81 x i8]* @.str.62, i64 0, i64 0), i8* getelementptr inbounds ([49 x i8], [49 x i8]* @.str.63, i64 0, i64 0), i8* getelementptr inbounds ([78 x i8], [78 x i8]* @.str.64, i64 0, i64 0), i8* getelementptr inbounds ([58 x i8], [58 x i8]* @.str.65, i64 0, i64 0), i8* getelementptr inbounds ([19 x i8], [19 x i8]* @.str.114, i64 0, i64 0), i8* getelementptr inbounds ([95 x i8], [95 x i8]* @.str.66, i64 0, i64 0), i8* getelementptr inbounds ([94 x i8], [94 x i8]* @.str.67, i64 0, i64 0), i8* getelementptr inbounds ([89 x i8], [89 x i8]* @.str.68, i64 0, i64 0), i8* getelementptr inbounds ([67 x i8], [67 x i8]* @.str.69, i64 0, i64 0), i8* getelementptr inbounds ([19 x i8], [19 x i8]* @.str.114, i64 0, i64 0), i8* getelementptr inbounds ([57 x i8], [57 x i8]* @.str.70, i64 0, i64 0), i8* getelementptr inbounds ([93 x i8], [93 x i8]* @.str.71, i64 0, i64 0), i8* getelementptr inbounds ([24 x i8], [24 x i8]* @.str.72, i64 0, i64 0), i8* getelementptr inbounds ([24 x i8], [24 x i8]* @.str.73, i64 0, i64 0), i8* getelementptr inbounds ([57 x i8], [57 x i8]* @.str.74, i64 0, i64 0), i8* getelementptr inbounds ([47 x i8], [47 x i8]* @.str.75, i64 0, i64 0), i8* getelementptr inbounds ([32 x i8], [32 x i8]* @.str.76, i64 0, i64 0), i8* getelementptr inbounds ([32 x i8], [32 x i8]* @.str.77, i64 0, i64 0), i8* getelementptr inbounds ([32 x i8], [32 x i8]* @.str.78, i64 0, i64 0), i8* getelementptr inbounds ([35 x i8], [35 x i8]* @.str.79, i64 0, i64 0), i8* getelementptr inbounds ([37 x i8], [37 x i8]* @.str.80, i64 0, i64 0), i8* getelementptr inbounds ([93 x i8], [93 x i8]* @.str.81, i64 0, i64 0), i8* getelementptr inbounds ([25 x i8], [25 x i8]* @.str.82, i64 0, i64 0), i8* getelementptr inbounds ([58 x i8], [58 x i8]* @.str.83, i64 0, i64 0), i8* getelementptr inbounds ([19 x i8], [19 x i8]* @.str.114, i64 0, i64 0), i8* getelementptr inbounds ([50 x i8], [50 x i8]* @.str.84, i64 0, i64 0), i8* getelementptr inbounds ([81 x i8], [81 x i8]* @.str.85, i64 0, i64 0), i8* getelementptr inbounds ([73 x i8], [73 x i8]* @.str.86, i64 0, i64 0), i8* getelementptr inbounds ([58 x i8], [58 x i8]* @.str.87, i64 0, i64 0), i8* getelementptr inbounds ([34 x i8], [34 x i8]* @.str.88, i64 0, i64 0), i8* getelementptr inbounds ([31 x i8], [31 x i8]* @.str.89, i64 0, i64 0), i8* getelementptr inbounds ([40 x i8], [40 x i8]* @.str.90, i64 0, i64 0), i8* getelementptr inbounds ([32 x i8], [32 x i8]* @.str.91, i64 0, i64 0), i8* getelementptr inbounds ([42 x i8], [42 x i8]* @.str.92, i64 0, i64 0), i8* getelementptr inbounds ([47 x i8], [47 x i8]* @.str.93, i64 0, i64 0), i8* getelementptr inbounds ([24 x i8], [24 x i8]* @.str.94, i64 0, i64 0), i8* getelementptr inbounds ([24 x i8], [24 x i8]* @.str.95, i64 0, i64 0), i8* getelementptr inbounds ([24 x i8], [24 x i8]* @.str.96, i64 0, i64 0), i8* getelementptr inbounds ([30 x i8], [30 x i8]* @.str.97, i64 0, i64 0), i8* getelementptr inbounds ([78 x i8], [78 x i8]* @.str.98, i64 0, i64 0), i8* getelementptr inbounds ([84 x i8], [84 x i8]* @.str.99, i64 0, i64 0), i8* getelementptr inbounds ([82 x i8], [82 x i8]* @.str.100, i64 0, i64 0), i8* getelementptr inbounds ([70 x i8], [70 x i8]* @.str.101, i64 0, i64 0), i8* getelementptr inbounds ([68 x i8], [68 x i8]* @.str.102, i64 0, i64 0), i8* getelementptr inbounds ([28 x i8], [28 x i8]* @.str.103, i64 0, i64 0), i8* getelementptr inbounds ([55 x i8], [55 x i8]* @.str.104, i64 0, i64 0), i8* getelementptr inbounds ([81 x i8], [81 x i8]* @.str.105, i64 0, i64 0), i8* getelementptr inbounds ([47 x i8], [47 x i8]* @.str.106, i64 0, i64 0), i8* getelementptr inbounds ([77 x i8], [77 x i8]* @.str.107, i64 0, i64 0), i8* getelementptr inbounds ([44 x i8], [44 x i8]* @.str.108, i64 0, i64 0), i8* getelementptr inbounds ([42 x i8], [42 x i8]* @.str.109, i64 0, i64 0), i8* getelementptr inbounds ([35 x i8], [35 x i8]* @.str.110, i64 0, i64 0), i8* getelementptr inbounds ([31 x i8], [31 x i8]* @.str.111, i64 0, i64 0), i8* getelementptr inbounds ([58 x i8], [58 x i8]* @.str.112, i64 0, i64 0), i8* getelementptr inbounds ([24 x i8], [24 x i8]* @.str.113, i64 0, i64 0)], align 8

@_ZN7lodepng5StateC1Ev = dso_local unnamed_addr alias void (%"class.lodepng::State"*), void (%"class.lodepng::State"*)* @_ZN7lodepng5StateC2Ev
@_ZN7lodepng5StateC1ERKS0_ = dso_local unnamed_addr alias void (%"class.lodepng::State"*, %"class.lodepng::State"*), void (%"class.lodepng::State"*, %"class.lodepng::State"*)* @_ZN7lodepng5StateC2ERKS0_
@_ZN7lodepng5StateD1Ev = dso_local unnamed_addr alias void (%"class.lodepng::State"*), void (%"class.lodepng::State"*)* @_ZN7lodepng5StateD2Ev

; Function Attrs: nofree nounwind uwtable
define dso_local noundef i32 @_Z17lodepng_load_filePPhPmPKc(i8** nocapture noundef writeonly %0, i64* nocapture noundef writeonly %1, i8* nocapture noundef readonly %2) local_unnamed_addr #0 {
  %4 = tail call noalias %struct._IO_FILE* @fopen(i8* noundef %2, i8* noundef getelementptr inbounds ([3 x i8], [3 x i8]* @.str.115, i64 0, i64 0)) #25
  %5 = icmp eq %struct._IO_FILE* %4, null
  br i1 %5, label %30, label %6

6:                                                ; preds = %3
  %7 = tail call i32 @fseek(%struct._IO_FILE* noundef nonnull %4, i64 noundef 0, i32 noundef 2) #25
  %8 = icmp eq i32 %7, 0
  br i1 %8, label %9, label %12

9:                                                ; preds = %6
  %10 = tail call i64 @ftell(%struct._IO_FILE* noundef nonnull %4) #25
  %11 = icmp eq i64 %10, 9223372036854775807
  br i1 %11, label %12, label %14

12:                                               ; preds = %6, %9
  %13 = tail call i32 @fclose(%struct._IO_FILE* noundef nonnull %4) #25
  br label %30

14:                                               ; preds = %9
  %15 = tail call i32 @fclose(%struct._IO_FILE* noundef nonnull %4) #25
  %16 = icmp slt i64 %10, 0
  br i1 %16, label %30, label %17

17:                                               ; preds = %14
  store i64 %10, i64* %1, align 8, !tbaa !3
  %18 = tail call noalias i8* @malloc(i64 noundef %10) #25
  store i8* %18, i8** %0, align 8, !tbaa !7
  %19 = icmp eq i8* %18, null
  %20 = icmp ne i64 %10, 0
  %21 = and i1 %20, %19
  br i1 %21, label %30, label %22

22:                                               ; preds = %17
  %23 = tail call noalias %struct._IO_FILE* @fopen(i8* noundef %2, i8* noundef getelementptr inbounds ([3 x i8], [3 x i8]* @.str.115, i64 0, i64 0)) #25
  %24 = icmp eq %struct._IO_FILE* %23, null
  br i1 %24, label %30, label %25

25:                                               ; preds = %22
  %26 = tail call i64 @fread(i8* noundef %18, i64 noundef 1, i64 noundef %10, %struct._IO_FILE* noundef nonnull %23) #25
  %27 = tail call i32 @fclose(%struct._IO_FILE* noundef nonnull %23) #25
  %28 = icmp eq i64 %26, %10
  %29 = select i1 %28, i32 0, i32 78
  br label %30

30:                                               ; preds = %3, %25, %22, %12, %17, %14
  %31 = phi i32 [ 78, %14 ], [ 83, %17 ], [ 78, %12 ], [ 78, %22 ], [ %29, %25 ], [ 78, %3 ]
  ret i32 %31
}

; Function Attrs: nofree nounwind
declare dso_local noalias noundef %struct._IO_FILE* @fopen(i8* nocapture noundef readonly, i8* nocapture noundef readonly) local_unnamed_addr #1

; Function Attrs: nofree nounwind
declare dso_local noundef i32 @fseek(%struct._IO_FILE* nocapture noundef, i64 noundef, i32 noundef) local_unnamed_addr #1

; Function Attrs: nofree nounwind
declare dso_local noundef i64 @ftell(%struct._IO_FILE* nocapture noundef) local_unnamed_addr #1

; Function Attrs: nofree nounwind
declare dso_local noundef i32 @fclose(%struct._IO_FILE* nocapture noundef) local_unnamed_addr #1

; Function Attrs: inaccessiblememonly mustprogress nofree nounwind willreturn
declare dso_local noalias noundef i8* @malloc(i64 noundef) local_unnamed_addr #2

; Function Attrs: nofree nounwind
declare dso_local noundef i64 @fread(i8* nocapture noundef, i64 noundef, i64 noundef, %struct._IO_FILE* nocapture noundef) local_unnamed_addr #1

; Function Attrs: nofree nounwind uwtable
define dso_local noundef i32 @_Z17lodepng_save_filePKhmPKc(i8* nocapture noundef %0, i64 noundef %1, i8* nocapture noundef readonly %2) local_unnamed_addr #0 {
  %4 = tail call noalias %struct._IO_FILE* @fopen(i8* noundef %2, i8* noundef getelementptr inbounds ([3 x i8], [3 x i8]* @.str.1, i64 0, i64 0))
  %5 = icmp eq %struct._IO_FILE* %4, null
  br i1 %5, label %9, label %6

6:                                                ; preds = %3
  %7 = tail call i64 @fwrite(i8* noundef %0, i64 noundef 1, i64 noundef %1, %struct._IO_FILE* noundef nonnull %4)
  %8 = tail call i32 @fclose(%struct._IO_FILE* noundef nonnull %4)
  br label %9

9:                                                ; preds = %3, %6
  %10 = phi i32 [ 0, %6 ], [ 79, %3 ]
  ret i32 %10
}

; Function Attrs: nofree nounwind
declare dso_local noundef i64 @fwrite(i8* nocapture noundef, i64 noundef, i64 noundef, %struct._IO_FILE* nocapture noundef) local_unnamed_addr #1

; Function Attrs: nounwind uwtable
define dso_local noundef i32 @_Z28lodepng_huffman_code_lengthsPjPKjmj(i32* nocapture noundef %0, i32* nocapture noundef readonly %1, i64 noundef %2, i32 noundef %3) local_unnamed_addr #3 {
  %5 = alloca %struct.BPMLists, align 8
  %6 = icmp eq i64 %2, 0
  %7 = shl nuw i32 1, %3
  %8 = trunc i64 %2 to i32
  %9 = icmp ult i32 %7, %8
  %10 = select i1 %6, i1 true, i1 %9
  br i1 %10, label %426, label %11

11:                                               ; preds = %4
  %12 = mul i64 %2, 24
  %13 = tail call noalias i8* @malloc(i64 noundef %12) #25
  %14 = bitcast i8* %13 to %struct.BPMNode*
  %15 = icmp eq i8* %13, null
  br i1 %15, label %426, label %16

16:                                               ; preds = %11, %27
  %17 = phi i64 [ %30, %27 ], [ 0, %11 ]
  %18 = phi i64 [ %28, %27 ], [ 0, %11 ]
  %19 = getelementptr inbounds i32, i32* %1, i64 %17
  %20 = load i32, i32* %19, align 4, !tbaa !9
  %21 = icmp eq i32 %20, 0
  br i1 %21, label %27, label %22

22:                                               ; preds = %16
  %23 = trunc i64 %17 to i32
  %24 = getelementptr inbounds %struct.BPMNode, %struct.BPMNode* %14, i64 %18, i32 0
  store i32 %20, i32* %24, align 8, !tbaa !11
  %25 = getelementptr inbounds %struct.BPMNode, %struct.BPMNode* %14, i64 %18, i32 1
  store i32 %23, i32* %25, align 4, !tbaa !13
  %26 = add i64 %18, 1
  br label %27

27:                                               ; preds = %16, %22
  %28 = phi i64 [ %26, %22 ], [ %18, %16 ]
  %29 = add nuw nsw i64 %17, 1
  %30 = and i64 %29, 4294967295
  %31 = icmp eq i64 %30, %2
  br i1 %31, label %32, label %16

32:                                               ; preds = %27
  %33 = shl i64 %2, 2
  %34 = icmp eq i64 %33, 0
  br i1 %34, label %37, label %35

35:                                               ; preds = %32
  %36 = bitcast i32* %0 to i8*
  tail call void @llvm.memset.p0i8.i64(i8* align 1 %36, i8 0, i64 %33, i1 false) #25, !tbaa !14, !alias.scope !15
  br label %37

37:                                               ; preds = %32, %35
  switch i64 %28, label %49 [
    i64 0, label %38
    i64 1, label %40
  ]

38:                                               ; preds = %37
  %39 = getelementptr inbounds i32, i32* %0, i64 1
  store i32 1, i32* %39, align 4, !tbaa !9
  store i32 1, i32* %0, align 4, !tbaa !9
  br label %424

40:                                               ; preds = %37
  %41 = getelementptr inbounds i8, i8* %13, i64 4
  %42 = bitcast i8* %41 to i32*
  %43 = load i32, i32* %42, align 4, !tbaa !13
  %44 = zext i32 %43 to i64
  %45 = getelementptr inbounds i32, i32* %0, i64 %44
  store i32 1, i32* %45, align 4, !tbaa !9
  %46 = icmp eq i32 %43, 0
  %47 = zext i1 %46 to i64
  %48 = getelementptr inbounds i32, i32* %0, i64 %47
  store i32 1, i32* %48, align 4, !tbaa !9
  br label %424

49:                                               ; preds = %37
  %50 = bitcast %struct.BPMLists* %5 to i8*
  call void @llvm.lifetime.start.p0i8(i64 56, i8* nonnull %50) #25
  %51 = mul i64 %28, 24
  %52 = tail call noalias i8* @malloc(i64 noundef %51) #25
  %53 = bitcast i8* %52 to %struct.BPMNode*
  br label %54

54:                                               ; preds = %49, %100
  %55 = phi i64 [ %61, %100 ], [ 1, %49 ]
  %56 = phi i64 [ %101, %100 ], [ 0, %49 ]
  %57 = and i64 %56, 1
  %58 = icmp eq i64 %57, 0
  %59 = select i1 %58, %struct.BPMNode* %14, %struct.BPMNode* %53
  %60 = select i1 %58, %struct.BPMNode* %53, %struct.BPMNode* %14
  %61 = shl i64 %55, 1
  br label %64

62:                                               ; preds = %90, %64
  %63 = icmp ult i64 %69, %28
  br i1 %63, label %64, label %100

64:                                               ; preds = %62, %54
  %65 = phi i64 [ 0, %54 ], [ %69, %62 ]
  %66 = add i64 %65, %55
  %67 = icmp ugt i64 %66, %28
  %68 = select i1 %67, i64 %28, i64 %66
  %69 = add i64 %65, %61
  %70 = icmp ugt i64 %69, %28
  %71 = select i1 %70, i64 %28, i64 %69
  %72 = icmp ult i64 %65, %71
  br i1 %72, label %73, label %62

73:                                               ; preds = %64, %90
  %74 = phi i64 [ %98, %90 ], [ %65, %64 ]
  %75 = phi i64 [ %93, %90 ], [ %68, %64 ]
  %76 = phi i64 [ %92, %90 ], [ %65, %64 ]
  %77 = icmp ult i64 %76, %68
  br i1 %77, label %78, label %88

78:                                               ; preds = %73
  %79 = icmp ult i64 %75, %71
  br i1 %79, label %80, label %86

80:                                               ; preds = %78
  %81 = getelementptr inbounds %struct.BPMNode, %struct.BPMNode* %59, i64 %76, i32 0
  %82 = load i32, i32* %81, align 8, !tbaa !11
  %83 = getelementptr inbounds %struct.BPMNode, %struct.BPMNode* %59, i64 %75, i32 0
  %84 = load i32, i32* %83, align 8, !tbaa !11
  %85 = icmp sgt i32 %82, %84
  br i1 %85, label %88, label %86

86:                                               ; preds = %80, %78
  %87 = add nuw i64 %76, 1
  br label %90

88:                                               ; preds = %80, %73
  %89 = add i64 %75, 1
  br label %90

90:                                               ; preds = %88, %86
  %91 = phi i64 [ %76, %86 ], [ %75, %88 ]
  %92 = phi i64 [ %87, %86 ], [ %76, %88 ]
  %93 = phi i64 [ %75, %86 ], [ %89, %88 ]
  %94 = getelementptr inbounds %struct.BPMNode, %struct.BPMNode* %59, i64 %91
  %95 = getelementptr inbounds %struct.BPMNode, %struct.BPMNode* %60, i64 %74
  %96 = bitcast %struct.BPMNode* %95 to i8*
  %97 = bitcast %struct.BPMNode* %94 to i8*
  tail call void @llvm.memcpy.p0i8.p0i8.i64(i8* noundef nonnull align 8 dereferenceable(24) %96, i8* noundef nonnull align 8 dereferenceable(24) %97, i64 24, i1 false) #25
  %98 = add nuw i64 %74, 1
  %99 = icmp ult i64 %98, %71
  br i1 %99, label %73, label %62

100:                                              ; preds = %62
  %101 = add i64 %56, 1
  %102 = icmp ult i64 %61, %28
  br i1 %102, label %54, label %103

103:                                              ; preds = %100
  %104 = and i64 %101, 1
  %105 = icmp eq i64 %104, 0
  %106 = icmp eq i64 %51, 0
  %107 = or i1 %106, %105
  br i1 %107, label %109, label %108

108:                                              ; preds = %103
  tail call void @llvm.memcpy.p0i8.p0i8.i64(i8* nonnull align 1 %13, i8* align 1 %52, i64 %51, i1 false) #25, !tbaa !14, !alias.scope !18
  br label %109

109:                                              ; preds = %103, %108
  tail call void @free(i8* noundef %52) #25
  %110 = getelementptr inbounds %struct.BPMLists, %struct.BPMLists* %5, i64 0, i32 5
  store i32 %3, i32* %110, align 8, !tbaa !22
  %111 = shl i32 %3, 1
  %112 = add i32 %3, 1
  %113 = mul i32 %111, %112
  %114 = getelementptr inbounds %struct.BPMLists, %struct.BPMLists* %5, i64 0, i32 0
  store i32 %113, i32* %114, align 8, !tbaa !24
  %115 = getelementptr inbounds %struct.BPMLists, %struct.BPMLists* %5, i64 0, i32 3
  store i32 0, i32* %115, align 4, !tbaa !25
  %116 = getelementptr inbounds %struct.BPMLists, %struct.BPMLists* %5, i64 0, i32 2
  store i32 %113, i32* %116, align 8, !tbaa !26
  %117 = zext i32 %113 to i64
  %118 = mul nuw nsw i64 %117, 24
  %119 = tail call noalias i8* @malloc(i64 noundef %118) #25
  %120 = getelementptr inbounds %struct.BPMLists, %struct.BPMLists* %5, i64 0, i32 1
  %121 = bitcast %struct.BPMNode** %120 to i8**
  store i8* %119, i8** %121, align 8, !tbaa !27
  %122 = shl nuw nsw i64 %117, 3
  %123 = tail call noalias i8* @malloc(i64 noundef %122) #25
  %124 = getelementptr inbounds %struct.BPMLists, %struct.BPMLists* %5, i64 0, i32 4
  %125 = bitcast %struct.BPMNode*** %124 to i8**
  store i8* %123, i8** %125, align 8, !tbaa !28
  %126 = zext i32 %3 to i64
  %127 = shl nuw nsw i64 %126, 3
  %128 = tail call noalias i8* @malloc(i64 noundef %127) #25
  %129 = getelementptr inbounds %struct.BPMLists, %struct.BPMLists* %5, i64 0, i32 6
  %130 = bitcast %struct.BPMNode*** %129 to i8**
  store i8* %128, i8** %130, align 8, !tbaa !29
  %131 = tail call noalias i8* @malloc(i64 noundef %127) #25
  %132 = getelementptr inbounds %struct.BPMLists, %struct.BPMLists* %5, i64 0, i32 7
  %133 = bitcast %struct.BPMNode*** %132 to i8**
  store i8* %131, i8** %133, align 8, !tbaa !30
  %134 = icmp ne i8* %119, null
  %135 = icmp ne i8* %123, null
  %136 = and i1 %134, %135
  %137 = icmp ne i8* %128, null
  %138 = and i1 %136, %137
  %139 = icmp ne i8* %131, null
  %140 = and i1 %139, %138
  %141 = select i1 %140, i32 0, i32 83
  br i1 %140, label %142, label %419

142:                                              ; preds = %109
  %143 = icmp eq i32 %113, 0
  br i1 %143, label %152, label %144

144:                                              ; preds = %142
  %145 = bitcast i8* %123 to i8**
  store i8* %119, i8** %145, align 8, !tbaa !7
  %146 = add nsw i64 %117, -1
  %147 = add nsw i64 %117, -2
  %148 = and i64 %146, 3
  %149 = icmp ult i64 %147, 3
  br i1 %149, label %180, label %150

150:                                              ; preds = %144
  %151 = and i64 %146, -4
  br label %155

152:                                              ; preds = %142
  %153 = bitcast i8* %13 to i32*
  %154 = load i32, i32* %153, align 8, !tbaa !11
  br label %195

155:                                              ; preds = %155, %150
  %156 = phi i64 [ 1, %150 ], [ %177, %155 ]
  %157 = phi i64 [ 0, %150 ], [ %178, %155 ]
  %158 = load %struct.BPMNode*, %struct.BPMNode** %120, align 8, !tbaa !27
  %159 = load %struct.BPMNode**, %struct.BPMNode*** %124, align 8, !tbaa !28
  %160 = getelementptr inbounds %struct.BPMNode, %struct.BPMNode* %158, i64 %156
  %161 = getelementptr inbounds %struct.BPMNode*, %struct.BPMNode** %159, i64 %156
  store %struct.BPMNode* %160, %struct.BPMNode** %161, align 8, !tbaa !7
  %162 = add nuw nsw i64 %156, 1
  %163 = load %struct.BPMNode*, %struct.BPMNode** %120, align 8, !tbaa !27
  %164 = load %struct.BPMNode**, %struct.BPMNode*** %124, align 8, !tbaa !28
  %165 = getelementptr inbounds %struct.BPMNode, %struct.BPMNode* %163, i64 %162
  %166 = getelementptr inbounds %struct.BPMNode*, %struct.BPMNode** %164, i64 %162
  store %struct.BPMNode* %165, %struct.BPMNode** %166, align 8, !tbaa !7
  %167 = add nuw nsw i64 %156, 2
  %168 = load %struct.BPMNode*, %struct.BPMNode** %120, align 8, !tbaa !27
  %169 = load %struct.BPMNode**, %struct.BPMNode*** %124, align 8, !tbaa !28
  %170 = getelementptr inbounds %struct.BPMNode, %struct.BPMNode* %168, i64 %167
  %171 = getelementptr inbounds %struct.BPMNode*, %struct.BPMNode** %169, i64 %167
  store %struct.BPMNode* %170, %struct.BPMNode** %171, align 8, !tbaa !7
  %172 = add nuw nsw i64 %156, 3
  %173 = load %struct.BPMNode*, %struct.BPMNode** %120, align 8, !tbaa !27
  %174 = load %struct.BPMNode**, %struct.BPMNode*** %124, align 8, !tbaa !28
  %175 = getelementptr inbounds %struct.BPMNode, %struct.BPMNode* %173, i64 %172
  %176 = getelementptr inbounds %struct.BPMNode*, %struct.BPMNode** %174, i64 %172
  store %struct.BPMNode* %175, %struct.BPMNode** %176, align 8, !tbaa !7
  %177 = add nuw nsw i64 %156, 4
  %178 = add i64 %157, 4
  %179 = icmp eq i64 %178, %151
  br i1 %179, label %180, label %155

180:                                              ; preds = %144, %155
  %181 = phi i64 [ 1, %144 ], [ %177, %155 ]
  br label %182

182:                                              ; preds = %182, %180
  %183 = phi i64 [ %181, %180 ], [ %189, %182 ]
  %184 = phi i64 [ 0, %180 ], [ %190, %182 ]
  %185 = load %struct.BPMNode*, %struct.BPMNode** %120, align 8, !tbaa !27
  %186 = load %struct.BPMNode**, %struct.BPMNode*** %124, align 8, !tbaa !28
  %187 = getelementptr inbounds %struct.BPMNode, %struct.BPMNode* %185, i64 %183
  %188 = getelementptr inbounds %struct.BPMNode*, %struct.BPMNode** %186, i64 %183
  store %struct.BPMNode* %187, %struct.BPMNode** %188, align 8, !tbaa !7
  %189 = add nuw nsw i64 %183, 1
  %190 = add i64 %184, 1
  %191 = icmp eq i64 %190, %148
  br i1 %191, label %192, label %182, !llvm.loop !31

192:                                              ; preds = %182
  %193 = bitcast i8* %13 to i32*
  %194 = load i32, i32* %193, align 8, !tbaa !11
  br i1 %143, label %195, label %226

195:                                              ; preds = %152, %192
  %196 = phi i32 [ %154, %152 ], [ %194, %192 ]
  %197 = icmp eq i32 %3, 0
  br i1 %197, label %225, label %198

198:                                              ; preds = %195
  %199 = load %struct.BPMNode**, %struct.BPMNode*** %129, align 8, !tbaa !29
  %200 = load %struct.BPMNode**, %struct.BPMNode*** %132, align 8, !tbaa !30
  br label %201

201:                                              ; preds = %222, %198
  %202 = phi i64 [ 0, %198 ], [ %223, %222 ]
  %203 = getelementptr inbounds %struct.BPMNode*, %struct.BPMNode** %199, i64 %202
  %204 = load %struct.BPMNode*, %struct.BPMNode** %203, align 8, !tbaa !7
  %205 = icmp eq %struct.BPMNode* %204, null
  br i1 %205, label %212, label %206

206:                                              ; preds = %201, %206
  %207 = phi %struct.BPMNode* [ %210, %206 ], [ %204, %201 ]
  %208 = getelementptr inbounds %struct.BPMNode, %struct.BPMNode* %207, i64 0, i32 3
  store i32 1, i32* %208, align 8, !tbaa !33
  %209 = getelementptr inbounds %struct.BPMNode, %struct.BPMNode* %207, i64 0, i32 2
  %210 = load %struct.BPMNode*, %struct.BPMNode** %209, align 8, !tbaa !7
  %211 = icmp eq %struct.BPMNode* %210, null
  br i1 %211, label %212, label %206

212:                                              ; preds = %206, %201
  %213 = getelementptr inbounds %struct.BPMNode*, %struct.BPMNode** %200, i64 %202
  %214 = load %struct.BPMNode*, %struct.BPMNode** %213, align 8, !tbaa !7
  %215 = icmp eq %struct.BPMNode* %214, null
  br i1 %215, label %222, label %216

216:                                              ; preds = %212, %216
  %217 = phi %struct.BPMNode* [ %220, %216 ], [ %214, %212 ]
  %218 = getelementptr inbounds %struct.BPMNode, %struct.BPMNode* %217, i64 0, i32 3
  store i32 1, i32* %218, align 8, !tbaa !33
  %219 = getelementptr inbounds %struct.BPMNode, %struct.BPMNode* %217, i64 0, i32 2
  %220 = load %struct.BPMNode*, %struct.BPMNode** %219, align 8, !tbaa !7
  %221 = icmp eq %struct.BPMNode* %220, null
  br i1 %221, label %222, label %216

222:                                              ; preds = %216, %212
  %223 = add nuw nsw i64 %202, 1
  %224 = icmp eq i64 %223, %126
  br i1 %224, label %225, label %201

225:                                              ; preds = %222, %195
  store i32 0, i32* %116, align 8, !tbaa !26
  br label %226

226:                                              ; preds = %225, %192
  %227 = phi i32 [ %196, %225 ], [ %194, %192 ]
  %228 = phi i32 [ 0, %225 ], [ %113, %192 ]
  %229 = load %struct.BPMNode**, %struct.BPMNode*** %124, align 8, !tbaa !28
  %230 = load %struct.BPMNode*, %struct.BPMNode** %229, align 8, !tbaa !7
  %231 = getelementptr inbounds %struct.BPMNode, %struct.BPMNode* %230, i64 0, i32 0
  store i32 %227, i32* %231, align 8, !tbaa !11
  %232 = getelementptr inbounds %struct.BPMNode, %struct.BPMNode* %230, i64 0, i32 1
  store i32 1, i32* %232, align 4, !tbaa !13
  %233 = getelementptr inbounds %struct.BPMNode, %struct.BPMNode* %230, i64 0, i32 2
  store %struct.BPMNode* null, %struct.BPMNode** %233, align 8, !tbaa !34
  %234 = getelementptr inbounds i8, i8* %13, i64 24
  %235 = bitcast i8* %234 to i32*
  %236 = load i32, i32* %235, align 8, !tbaa !11
  %237 = icmp ugt i32 %228, 1
  br i1 %237, label %334, label %238

238:                                              ; preds = %226
  br i1 %143, label %256, label %239

239:                                              ; preds = %238
  %240 = load %struct.BPMNode*, %struct.BPMNode** %120, align 8, !tbaa !27
  %241 = add nsw i64 %117, -1
  %242 = and i64 %117, 2
  %243 = icmp ult i64 %241, 3
  br i1 %243, label %246, label %244

244:                                              ; preds = %239
  %245 = and i64 %117, 4294967292
  br label %261

246:                                              ; preds = %261, %239
  %247 = phi i64 [ 0, %239 ], [ %271, %261 ]
  %248 = icmp eq i64 %242, 0
  br i1 %248, label %256, label %249

249:                                              ; preds = %246, %249
  %250 = phi i64 [ %253, %249 ], [ %247, %246 ]
  %251 = phi i64 [ %254, %249 ], [ 0, %246 ]
  %252 = getelementptr inbounds %struct.BPMNode, %struct.BPMNode* %240, i64 %250, i32 3
  store i32 0, i32* %252, align 8, !tbaa !33
  %253 = add nuw nsw i64 %250, 1
  %254 = add i64 %251, 1
  %255 = icmp eq i64 %254, %242
  br i1 %255, label %256, label %249, !llvm.loop !35

256:                                              ; preds = %246, %249, %238
  %257 = icmp eq i32 %3, 0
  br i1 %257, label %298, label %258

258:                                              ; preds = %256
  %259 = load %struct.BPMNode**, %struct.BPMNode*** %129, align 8, !tbaa !29
  %260 = load %struct.BPMNode**, %struct.BPMNode*** %132, align 8, !tbaa !30
  br label %274

261:                                              ; preds = %261, %244
  %262 = phi i64 [ 0, %244 ], [ %271, %261 ]
  %263 = phi i64 [ 0, %244 ], [ %272, %261 ]
  %264 = getelementptr inbounds %struct.BPMNode, %struct.BPMNode* %240, i64 %262, i32 3
  store i32 0, i32* %264, align 8, !tbaa !33
  %265 = or i64 %262, 1
  %266 = getelementptr inbounds %struct.BPMNode, %struct.BPMNode* %240, i64 %265, i32 3
  store i32 0, i32* %266, align 8, !tbaa !33
  %267 = or i64 %262, 2
  %268 = getelementptr inbounds %struct.BPMNode, %struct.BPMNode* %240, i64 %267, i32 3
  store i32 0, i32* %268, align 8, !tbaa !33
  %269 = or i64 %262, 3
  %270 = getelementptr inbounds %struct.BPMNode, %struct.BPMNode* %240, i64 %269, i32 3
  store i32 0, i32* %270, align 8, !tbaa !33
  %271 = add nuw nsw i64 %262, 4
  %272 = add i64 %263, 4
  %273 = icmp eq i64 %272, %245
  br i1 %273, label %246, label %261

274:                                              ; preds = %295, %258
  %275 = phi i64 [ 0, %258 ], [ %296, %295 ]
  %276 = getelementptr inbounds %struct.BPMNode*, %struct.BPMNode** %259, i64 %275
  %277 = load %struct.BPMNode*, %struct.BPMNode** %276, align 8, !tbaa !7
  %278 = icmp eq %struct.BPMNode* %277, null
  br i1 %278, label %285, label %279

279:                                              ; preds = %274, %279
  %280 = phi %struct.BPMNode* [ %283, %279 ], [ %277, %274 ]
  %281 = getelementptr inbounds %struct.BPMNode, %struct.BPMNode* %280, i64 0, i32 3
  store i32 1, i32* %281, align 8, !tbaa !33
  %282 = getelementptr inbounds %struct.BPMNode, %struct.BPMNode* %280, i64 0, i32 2
  %283 = load %struct.BPMNode*, %struct.BPMNode** %282, align 8, !tbaa !7
  %284 = icmp eq %struct.BPMNode* %283, null
  br i1 %284, label %285, label %279

285:                                              ; preds = %279, %274
  %286 = getelementptr inbounds %struct.BPMNode*, %struct.BPMNode** %260, i64 %275
  %287 = load %struct.BPMNode*, %struct.BPMNode** %286, align 8, !tbaa !7
  %288 = icmp eq %struct.BPMNode* %287, null
  br i1 %288, label %295, label %289

289:                                              ; preds = %285, %289
  %290 = phi %struct.BPMNode* [ %293, %289 ], [ %287, %285 ]
  %291 = getelementptr inbounds %struct.BPMNode, %struct.BPMNode* %290, i64 0, i32 3
  store i32 1, i32* %291, align 8, !tbaa !33
  %292 = getelementptr inbounds %struct.BPMNode, %struct.BPMNode* %290, i64 0, i32 2
  %293 = load %struct.BPMNode*, %struct.BPMNode** %292, align 8, !tbaa !7
  %294 = icmp eq %struct.BPMNode* %293, null
  br i1 %294, label %295, label %289

295:                                              ; preds = %289, %285
  %296 = add nuw nsw i64 %275, 1
  %297 = icmp eq i64 %296, %126
  br i1 %297, label %298, label %274

298:                                              ; preds = %295, %256
  store i32 0, i32* %116, align 8, !tbaa !26
  br i1 %143, label %334, label %299

299:                                              ; preds = %298, %327
  %300 = phi i32 [ %328, %327 ], [ 0, %298 ]
  %301 = phi i32 [ %329, %327 ], [ 0, %298 ]
  %302 = phi i64 [ %330, %327 ], [ 0, %298 ]
  %303 = load %struct.BPMNode*, %struct.BPMNode** %120, align 8, !tbaa !27
  %304 = getelementptr inbounds %struct.BPMNode, %struct.BPMNode* %303, i64 %302, i32 3
  %305 = load i32, i32* %304, align 8, !tbaa !33
  %306 = icmp eq i32 %305, 0
  br i1 %306, label %307, label %313

307:                                              ; preds = %299
  %308 = getelementptr inbounds %struct.BPMNode, %struct.BPMNode* %303, i64 %302
  %309 = load %struct.BPMNode**, %struct.BPMNode*** %124, align 8, !tbaa !28
  %310 = add i32 %301, 1
  %311 = zext i32 %301 to i64
  %312 = getelementptr inbounds %struct.BPMNode*, %struct.BPMNode** %309, i64 %311
  store %struct.BPMNode* %308, %struct.BPMNode** %312, align 8, !tbaa !7
  br label %313

313:                                              ; preds = %307, %299
  %314 = phi i32 [ %300, %299 ], [ %310, %307 ]
  %315 = phi i32 [ %301, %299 ], [ %310, %307 ]
  %316 = or i64 %302, 1
  %317 = load %struct.BPMNode*, %struct.BPMNode** %120, align 8, !tbaa !27
  %318 = getelementptr inbounds %struct.BPMNode, %struct.BPMNode* %317, i64 %316, i32 3
  %319 = load i32, i32* %318, align 8, !tbaa !33
  %320 = icmp eq i32 %319, 0
  br i1 %320, label %321, label %327

321:                                              ; preds = %313
  %322 = getelementptr inbounds %struct.BPMNode, %struct.BPMNode* %317, i64 %316
  %323 = load %struct.BPMNode**, %struct.BPMNode*** %124, align 8, !tbaa !28
  %324 = add i32 %315, 1
  %325 = zext i32 %315 to i64
  %326 = getelementptr inbounds %struct.BPMNode*, %struct.BPMNode** %323, i64 %325
  store %struct.BPMNode* %322, %struct.BPMNode** %326, align 8, !tbaa !7
  br label %327

327:                                              ; preds = %321, %313
  %328 = phi i32 [ %314, %313 ], [ %324, %321 ]
  %329 = phi i32 [ %315, %313 ], [ %324, %321 ]
  %330 = add nuw nsw i64 %302, 2
  %331 = icmp eq i64 %330, %117
  br i1 %331, label %332, label %299

332:                                              ; preds = %327
  store i32 %328, i32* %116, align 8, !tbaa !26
  %333 = load %struct.BPMNode**, %struct.BPMNode*** %124, align 8, !tbaa !28
  br label %334

334:                                              ; preds = %332, %226, %298
  %335 = phi %struct.BPMNode** [ %229, %226 ], [ %229, %298 ], [ %333, %332 ]
  %336 = phi i32 [ 1, %226 ], [ 0, %298 ], [ 0, %332 ]
  %337 = add nuw nsw i32 %336, 1
  store i32 %337, i32* %115, align 4, !tbaa !25
  %338 = zext i32 %336 to i64
  %339 = getelementptr inbounds %struct.BPMNode*, %struct.BPMNode** %335, i64 %338
  %340 = load %struct.BPMNode*, %struct.BPMNode** %339, align 8, !tbaa !7
  %341 = getelementptr inbounds %struct.BPMNode, %struct.BPMNode* %340, i64 0, i32 0
  store i32 %236, i32* %341, align 8, !tbaa !11
  %342 = getelementptr inbounds %struct.BPMNode, %struct.BPMNode* %340, i64 0, i32 1
  store i32 2, i32* %342, align 4, !tbaa !13
  %343 = getelementptr inbounds %struct.BPMNode, %struct.BPMNode* %340, i64 0, i32 2
  store %struct.BPMNode* null, %struct.BPMNode** %343, align 8, !tbaa !34
  %344 = icmp eq i32 %3, 0
  br i1 %344, label %361, label %345

345:                                              ; preds = %334
  %346 = and i64 %126, 1
  %347 = icmp eq i32 %3, 1
  br i1 %347, label %350, label %348

348:                                              ; preds = %345
  %349 = and i64 %126, 4294967294
  br label %366

350:                                              ; preds = %366, %345
  %351 = phi i64 [ 0, %345 ], [ %384, %366 ]
  %352 = icmp eq i64 %346, 0
  br i1 %352, label %361, label %353

353:                                              ; preds = %350
  %354 = load %struct.BPMNode*, %struct.BPMNode** %120, align 8, !tbaa !27
  %355 = load %struct.BPMNode**, %struct.BPMNode*** %129, align 8, !tbaa !29
  %356 = getelementptr inbounds %struct.BPMNode*, %struct.BPMNode** %355, i64 %351
  store %struct.BPMNode* %354, %struct.BPMNode** %356, align 8, !tbaa !7
  %357 = load %struct.BPMNode*, %struct.BPMNode** %120, align 8, !tbaa !27
  %358 = getelementptr inbounds %struct.BPMNode, %struct.BPMNode* %357, i64 1
  %359 = load %struct.BPMNode**, %struct.BPMNode*** %132, align 8, !tbaa !30
  %360 = getelementptr inbounds %struct.BPMNode*, %struct.BPMNode** %359, i64 %351
  store %struct.BPMNode* %358, %struct.BPMNode** %360, align 8, !tbaa !7
  br label %361

361:                                              ; preds = %353, %350, %334
  %362 = shl i64 %28, 1
  %363 = add i64 %362, -2
  %364 = icmp eq i64 %363, 2
  %365 = add i32 %3, -1
  br i1 %364, label %392, label %387

366:                                              ; preds = %366, %348
  %367 = phi i64 [ 0, %348 ], [ %384, %366 ]
  %368 = phi i64 [ 0, %348 ], [ %385, %366 ]
  %369 = load %struct.BPMNode*, %struct.BPMNode** %120, align 8, !tbaa !27
  %370 = load %struct.BPMNode**, %struct.BPMNode*** %129, align 8, !tbaa !29
  %371 = getelementptr inbounds %struct.BPMNode*, %struct.BPMNode** %370, i64 %367
  store %struct.BPMNode* %369, %struct.BPMNode** %371, align 8, !tbaa !7
  %372 = load %struct.BPMNode*, %struct.BPMNode** %120, align 8, !tbaa !27
  %373 = getelementptr inbounds %struct.BPMNode, %struct.BPMNode* %372, i64 1
  %374 = load %struct.BPMNode**, %struct.BPMNode*** %132, align 8, !tbaa !30
  %375 = getelementptr inbounds %struct.BPMNode*, %struct.BPMNode** %374, i64 %367
  store %struct.BPMNode* %373, %struct.BPMNode** %375, align 8, !tbaa !7
  %376 = or i64 %367, 1
  %377 = load %struct.BPMNode*, %struct.BPMNode** %120, align 8, !tbaa !27
  %378 = load %struct.BPMNode**, %struct.BPMNode*** %129, align 8, !tbaa !29
  %379 = getelementptr inbounds %struct.BPMNode*, %struct.BPMNode** %378, i64 %376
  store %struct.BPMNode* %377, %struct.BPMNode** %379, align 8, !tbaa !7
  %380 = load %struct.BPMNode*, %struct.BPMNode** %120, align 8, !tbaa !27
  %381 = getelementptr inbounds %struct.BPMNode, %struct.BPMNode* %380, i64 1
  %382 = load %struct.BPMNode**, %struct.BPMNode*** %132, align 8, !tbaa !30
  %383 = getelementptr inbounds %struct.BPMNode*, %struct.BPMNode** %382, i64 %376
  store %struct.BPMNode* %381, %struct.BPMNode** %383, align 8, !tbaa !7
  %384 = add nuw nsw i64 %367, 2
  %385 = add i64 %368, 2
  %386 = icmp eq i64 %385, %349
  br i1 %386, label %350, label %366

387:                                              ; preds = %361, %387
  %388 = phi i32 [ %389, %387 ], [ 2, %361 ]
  call fastcc void @_ZL10boundaryPMP8BPMListsP7BPMNodemii(%struct.BPMLists* noundef nonnull %5, %struct.BPMNode* noundef nonnull %14, i64 noundef %28, i32 noundef %365, i32 noundef %388)
  %389 = add i32 %388, 1
  %390 = zext i32 %389 to i64
  %391 = icmp eq i64 %363, %390
  br i1 %391, label %392, label %387

392:                                              ; preds = %387, %361
  %393 = load %struct.BPMNode**, %struct.BPMNode*** %132, align 8, !tbaa !30
  %394 = zext i32 %365 to i64
  %395 = getelementptr inbounds %struct.BPMNode*, %struct.BPMNode** %393, i64 %394
  %396 = load %struct.BPMNode*, %struct.BPMNode** %395, align 8, !tbaa !7
  %397 = icmp eq %struct.BPMNode* %396, null
  br i1 %397, label %419, label %398

398:                                              ; preds = %392, %415
  %399 = phi %struct.BPMNode* [ %417, %415 ], [ %396, %392 ]
  %400 = getelementptr inbounds %struct.BPMNode, %struct.BPMNode* %399, i64 0, i32 1
  %401 = load i32, i32* %400, align 4, !tbaa !13
  %402 = icmp eq i32 %401, 0
  br i1 %402, label %415, label %403

403:                                              ; preds = %398, %403
  %404 = phi i32 [ %412, %403 ], [ 0, %398 ]
  %405 = zext i32 %404 to i64
  %406 = getelementptr inbounds %struct.BPMNode, %struct.BPMNode* %14, i64 %405, i32 1
  %407 = load i32, i32* %406, align 4, !tbaa !13
  %408 = zext i32 %407 to i64
  %409 = getelementptr inbounds i32, i32* %0, i64 %408
  %410 = load i32, i32* %409, align 4, !tbaa !9
  %411 = add i32 %410, 1
  store i32 %411, i32* %409, align 4, !tbaa !9
  %412 = add i32 %404, 1
  %413 = load i32, i32* %400, align 4, !tbaa !13
  %414 = icmp eq i32 %412, %413
  br i1 %414, label %415, label %403

415:                                              ; preds = %403, %398
  %416 = getelementptr inbounds %struct.BPMNode, %struct.BPMNode* %399, i64 0, i32 2
  %417 = load %struct.BPMNode*, %struct.BPMNode** %416, align 8, !tbaa !7
  %418 = icmp eq %struct.BPMNode* %417, null
  br i1 %418, label %419, label %398

419:                                              ; preds = %415, %392, %109
  %420 = load i8*, i8** %121, align 8, !tbaa !27
  call void @free(i8* noundef %420) #25
  %421 = load i8*, i8** %125, align 8, !tbaa !28
  call void @free(i8* noundef %421) #25
  %422 = load i8*, i8** %130, align 8, !tbaa !29
  call void @free(i8* noundef %422) #25
  %423 = load i8*, i8** %133, align 8, !tbaa !30
  call void @free(i8* noundef %423) #25
  call void @llvm.lifetime.end.p0i8(i64 56, i8* nonnull %50) #25
  br label %424

424:                                              ; preds = %40, %419, %38
  %425 = phi i32 [ 0, %38 ], [ 0, %40 ], [ %141, %419 ]
  call void @free(i8* noundef %13) #25
  br label %426

426:                                              ; preds = %11, %4, %424
  %427 = phi i32 [ %425, %424 ], [ 80, %4 ], [ 83, %11 ]
  ret i32 %427
}

; Function Attrs: argmemonly nofree nounwind willreturn writeonly
declare void @llvm.memset.p0i8.i64(i8* nocapture writeonly, i8, i64, i1 immarg) #4

; Function Attrs: argmemonly nofree nosync nounwind willreturn
declare void @llvm.lifetime.start.p0i8(i64 immarg, i8* nocapture) #5

; Function Attrs: argmemonly nofree nounwind willreturn
declare void @llvm.memcpy.p0i8.p0i8.i64(i8* noalias nocapture writeonly, i8* noalias nocapture readonly, i64, i1 immarg) #6

; Function Attrs: inaccessiblemem_or_argmemonly mustprogress nounwind willreturn
declare dso_local void @free(i8* nocapture noundef) local_unnamed_addr #7

; Function Attrs: nofree nosync nounwind uwtable
define internal fastcc void @_ZL10boundaryPMP8BPMListsP7BPMNodemii(%struct.BPMLists* noundef %0, %struct.BPMNode* noundef %1, i64 noundef %2, i32 noundef %3, i32 noundef %4) unnamed_addr #8 {
  %6 = getelementptr inbounds %struct.BPMLists, %struct.BPMLists* %0, i64 0, i32 7
  %7 = load %struct.BPMNode**, %struct.BPMNode*** %6, align 8, !tbaa !30
  %8 = sext i32 %3 to i64
  %9 = getelementptr inbounds %struct.BPMNode*, %struct.BPMNode** %7, i64 %8
  %10 = load %struct.BPMNode*, %struct.BPMNode** %9, align 8, !tbaa !7
  %11 = getelementptr inbounds %struct.BPMNode, %struct.BPMNode* %10, i64 0, i32 1
  %12 = load i32, i32* %11, align 4, !tbaa !13
  %13 = icmp eq i32 %3, 0
  br i1 %13, label %27, label %14

14:                                               ; preds = %5
  %15 = getelementptr inbounds %struct.BPMLists, %struct.BPMLists* %0, i64 0, i32 6
  %16 = getelementptr inbounds %struct.BPMLists, %struct.BPMLists* %0, i64 0, i32 3
  %17 = getelementptr inbounds %struct.BPMLists, %struct.BPMLists* %0, i64 0, i32 2
  %18 = getelementptr inbounds %struct.BPMLists, %struct.BPMLists* %0, i64 0, i32 0
  %19 = getelementptr inbounds %struct.BPMLists, %struct.BPMLists* %0, i64 0, i32 1
  %20 = getelementptr inbounds %struct.BPMLists, %struct.BPMLists* %0, i64 0, i32 5
  %21 = getelementptr inbounds %struct.BPMLists, %struct.BPMLists* %0, i64 0, i32 4
  %22 = add nsw i32 %4, 1
  %23 = trunc i64 %2 to i32
  %24 = shl i32 %23, 1
  %25 = add i32 %24, -2
  %26 = icmp slt i32 %22, %25
  br label %182

27:                                               ; preds = %486, %5
  %28 = phi i64 [ 0, %5 ], [ %188, %486 ]
  %29 = phi %struct.BPMNode* [ %10, %5 ], [ %490, %486 ]
  %30 = phi i32 [ %12, %5 ], [ %492, %486 ]
  %31 = zext i32 %30 to i64
  %32 = icmp ult i64 %31, %2
  br i1 %32, label %33, label %494

33:                                               ; preds = %27
  %34 = getelementptr inbounds %struct.BPMLists, %struct.BPMLists* %0, i64 0, i32 6
  %35 = load %struct.BPMNode**, %struct.BPMNode*** %34, align 8, !tbaa !29
  %36 = getelementptr inbounds %struct.BPMNode*, %struct.BPMNode** %35, i64 %28
  store %struct.BPMNode* %29, %struct.BPMNode** %36, align 8, !tbaa !7
  %37 = getelementptr inbounds %struct.BPMNode, %struct.BPMNode* %1, i64 %31, i32 0
  %38 = load i32, i32* %37, align 8, !tbaa !11
  %39 = add i32 %30, 1
  %40 = getelementptr inbounds %struct.BPMLists, %struct.BPMLists* %0, i64 0, i32 3
  %41 = load i32, i32* %40, align 4, !tbaa !25
  %42 = getelementptr inbounds %struct.BPMLists, %struct.BPMLists* %0, i64 0, i32 2
  %43 = load i32, i32* %42, align 8, !tbaa !26
  %44 = icmp ult i32 %41, %43
  br i1 %44, label %169, label %45

45:                                               ; preds = %33
  %46 = getelementptr inbounds %struct.BPMLists, %struct.BPMLists* %0, i64 0, i32 0
  %47 = load i32, i32* %46, align 8, !tbaa !24
  %48 = icmp eq i32 %47, 0
  br i1 %48, label %68, label %49

49:                                               ; preds = %45
  %50 = getelementptr inbounds %struct.BPMLists, %struct.BPMLists* %0, i64 0, i32 1
  %51 = load %struct.BPMNode*, %struct.BPMNode** %50, align 8, !tbaa !27
  %52 = zext i32 %47 to i64
  %53 = add nsw i64 %52, -1
  %54 = and i64 %52, 3
  %55 = icmp ult i64 %53, 3
  br i1 %55, label %58, label %56

56:                                               ; preds = %49
  %57 = and i64 %52, 4294967292
  br label %76

58:                                               ; preds = %76, %49
  %59 = phi i64 [ 0, %49 ], [ %86, %76 ]
  %60 = icmp eq i64 %54, 0
  br i1 %60, label %68, label %61

61:                                               ; preds = %58, %61
  %62 = phi i64 [ %65, %61 ], [ %59, %58 ]
  %63 = phi i64 [ %66, %61 ], [ 0, %58 ]
  %64 = getelementptr inbounds %struct.BPMNode, %struct.BPMNode* %51, i64 %62, i32 3
  store i32 0, i32* %64, align 8, !tbaa !33
  %65 = add nuw nsw i64 %62, 1
  %66 = add i64 %63, 1
  %67 = icmp eq i64 %66, %54
  br i1 %67, label %68, label %61, !llvm.loop !36

68:                                               ; preds = %58, %61, %45
  %69 = getelementptr inbounds %struct.BPMLists, %struct.BPMLists* %0, i64 0, i32 5
  %70 = load i32, i32* %69, align 8, !tbaa !22
  %71 = icmp eq i32 %70, 0
  br i1 %71, label %113, label %72

72:                                               ; preds = %68
  %73 = load %struct.BPMNode**, %struct.BPMNode*** %34, align 8, !tbaa !29
  %74 = load %struct.BPMNode**, %struct.BPMNode*** %6, align 8, !tbaa !30
  %75 = zext i32 %70 to i64
  br label %89

76:                                               ; preds = %76, %56
  %77 = phi i64 [ 0, %56 ], [ %86, %76 ]
  %78 = phi i64 [ 0, %56 ], [ %87, %76 ]
  %79 = getelementptr inbounds %struct.BPMNode, %struct.BPMNode* %51, i64 %77, i32 3
  store i32 0, i32* %79, align 8, !tbaa !33
  %80 = or i64 %77, 1
  %81 = getelementptr inbounds %struct.BPMNode, %struct.BPMNode* %51, i64 %80, i32 3
  store i32 0, i32* %81, align 8, !tbaa !33
  %82 = or i64 %77, 2
  %83 = getelementptr inbounds %struct.BPMNode, %struct.BPMNode* %51, i64 %82, i32 3
  store i32 0, i32* %83, align 8, !tbaa !33
  %84 = or i64 %77, 3
  %85 = getelementptr inbounds %struct.BPMNode, %struct.BPMNode* %51, i64 %84, i32 3
  store i32 0, i32* %85, align 8, !tbaa !33
  %86 = add nuw nsw i64 %77, 4
  %87 = add i64 %78, 4
  %88 = icmp eq i64 %87, %57
  br i1 %88, label %58, label %76

89:                                               ; preds = %110, %72
  %90 = phi i64 [ 0, %72 ], [ %111, %110 ]
  %91 = getelementptr inbounds %struct.BPMNode*, %struct.BPMNode** %73, i64 %90
  %92 = load %struct.BPMNode*, %struct.BPMNode** %91, align 8, !tbaa !7
  %93 = icmp eq %struct.BPMNode* %92, null
  br i1 %93, label %100, label %94

94:                                               ; preds = %89, %94
  %95 = phi %struct.BPMNode* [ %98, %94 ], [ %92, %89 ]
  %96 = getelementptr inbounds %struct.BPMNode, %struct.BPMNode* %95, i64 0, i32 3
  store i32 1, i32* %96, align 8, !tbaa !33
  %97 = getelementptr inbounds %struct.BPMNode, %struct.BPMNode* %95, i64 0, i32 2
  %98 = load %struct.BPMNode*, %struct.BPMNode** %97, align 8, !tbaa !7
  %99 = icmp eq %struct.BPMNode* %98, null
  br i1 %99, label %100, label %94

100:                                              ; preds = %94, %89
  %101 = getelementptr inbounds %struct.BPMNode*, %struct.BPMNode** %74, i64 %90
  %102 = load %struct.BPMNode*, %struct.BPMNode** %101, align 8, !tbaa !7
  %103 = icmp eq %struct.BPMNode* %102, null
  br i1 %103, label %110, label %104

104:                                              ; preds = %100, %104
  %105 = phi %struct.BPMNode* [ %108, %104 ], [ %102, %100 ]
  %106 = getelementptr inbounds %struct.BPMNode, %struct.BPMNode* %105, i64 0, i32 3
  store i32 1, i32* %106, align 8, !tbaa !33
  %107 = getelementptr inbounds %struct.BPMNode, %struct.BPMNode* %105, i64 0, i32 2
  %108 = load %struct.BPMNode*, %struct.BPMNode** %107, align 8, !tbaa !7
  %109 = icmp eq %struct.BPMNode* %108, null
  br i1 %109, label %110, label %104

110:                                              ; preds = %104, %100
  %111 = add nuw nsw i64 %90, 1
  %112 = icmp eq i64 %111, %75
  br i1 %112, label %113, label %89

113:                                              ; preds = %110, %68
  store i32 0, i32* %42, align 8, !tbaa !26
  br i1 %48, label %169, label %114

114:                                              ; preds = %113
  %115 = getelementptr inbounds %struct.BPMLists, %struct.BPMLists* %0, i64 0, i32 1
  %116 = getelementptr inbounds %struct.BPMLists, %struct.BPMLists* %0, i64 0, i32 4
  %117 = zext i32 %47 to i64
  %118 = and i64 %117, 1
  %119 = icmp eq i32 %47, 1
  br i1 %119, label %154, label %120

120:                                              ; preds = %114
  %121 = and i64 %117, 4294967294
  br label %122

122:                                              ; preds = %149, %120
  %123 = phi i32 [ 0, %120 ], [ %150, %149 ]
  %124 = phi i64 [ 0, %120 ], [ %151, %149 ]
  %125 = phi i64 [ 0, %120 ], [ %152, %149 ]
  %126 = load %struct.BPMNode*, %struct.BPMNode** %115, align 8, !tbaa !27
  %127 = getelementptr inbounds %struct.BPMNode, %struct.BPMNode* %126, i64 %124, i32 3
  %128 = load i32, i32* %127, align 8, !tbaa !33
  %129 = icmp eq i32 %128, 0
  br i1 %129, label %130, label %136

130:                                              ; preds = %122
  %131 = getelementptr inbounds %struct.BPMNode, %struct.BPMNode* %126, i64 %124
  %132 = load %struct.BPMNode**, %struct.BPMNode*** %116, align 8, !tbaa !28
  %133 = add i32 %123, 1
  store i32 %133, i32* %42, align 8, !tbaa !26
  %134 = zext i32 %123 to i64
  %135 = getelementptr inbounds %struct.BPMNode*, %struct.BPMNode** %132, i64 %134
  store %struct.BPMNode* %131, %struct.BPMNode** %135, align 8, !tbaa !7
  br label %136

136:                                              ; preds = %130, %122
  %137 = phi i32 [ %123, %122 ], [ %133, %130 ]
  %138 = or i64 %124, 1
  %139 = load %struct.BPMNode*, %struct.BPMNode** %115, align 8, !tbaa !27
  %140 = getelementptr inbounds %struct.BPMNode, %struct.BPMNode* %139, i64 %138, i32 3
  %141 = load i32, i32* %140, align 8, !tbaa !33
  %142 = icmp eq i32 %141, 0
  br i1 %142, label %143, label %149

143:                                              ; preds = %136
  %144 = getelementptr inbounds %struct.BPMNode, %struct.BPMNode* %139, i64 %138
  %145 = load %struct.BPMNode**, %struct.BPMNode*** %116, align 8, !tbaa !28
  %146 = add i32 %137, 1
  store i32 %146, i32* %42, align 8, !tbaa !26
  %147 = zext i32 %137 to i64
  %148 = getelementptr inbounds %struct.BPMNode*, %struct.BPMNode** %145, i64 %147
  store %struct.BPMNode* %144, %struct.BPMNode** %148, align 8, !tbaa !7
  br label %149

149:                                              ; preds = %143, %136
  %150 = phi i32 [ %137, %136 ], [ %146, %143 ]
  %151 = add nuw nsw i64 %124, 2
  %152 = add i64 %125, 2
  %153 = icmp eq i64 %152, %121
  br i1 %153, label %154, label %122

154:                                              ; preds = %149, %114
  %155 = phi i32 [ 0, %114 ], [ %150, %149 ]
  %156 = phi i64 [ 0, %114 ], [ %151, %149 ]
  %157 = icmp eq i64 %118, 0
  br i1 %157, label %169, label %158

158:                                              ; preds = %154
  %159 = load %struct.BPMNode*, %struct.BPMNode** %115, align 8, !tbaa !27
  %160 = getelementptr inbounds %struct.BPMNode, %struct.BPMNode* %159, i64 %156, i32 3
  %161 = load i32, i32* %160, align 8, !tbaa !33
  %162 = icmp eq i32 %161, 0
  br i1 %162, label %163, label %169

163:                                              ; preds = %158
  %164 = getelementptr inbounds %struct.BPMNode, %struct.BPMNode* %159, i64 %156
  %165 = load %struct.BPMNode**, %struct.BPMNode*** %116, align 8, !tbaa !28
  %166 = add i32 %155, 1
  store i32 %166, i32* %42, align 8, !tbaa !26
  %167 = zext i32 %155 to i64
  %168 = getelementptr inbounds %struct.BPMNode*, %struct.BPMNode** %165, i64 %167
  store %struct.BPMNode* %164, %struct.BPMNode** %168, align 8, !tbaa !7
  br label %169

169:                                              ; preds = %154, %163, %158, %33, %113
  %170 = phi i32 [ %41, %33 ], [ 0, %113 ], [ 0, %158 ], [ 0, %163 ], [ 0, %154 ]
  %171 = getelementptr inbounds %struct.BPMLists, %struct.BPMLists* %0, i64 0, i32 4
  %172 = load %struct.BPMNode**, %struct.BPMNode*** %171, align 8, !tbaa !28
  %173 = add nuw i32 %170, 1
  store i32 %173, i32* %40, align 4, !tbaa !25
  %174 = zext i32 %170 to i64
  %175 = getelementptr inbounds %struct.BPMNode*, %struct.BPMNode** %172, i64 %174
  %176 = load %struct.BPMNode*, %struct.BPMNode** %175, align 8, !tbaa !7
  %177 = getelementptr inbounds %struct.BPMNode, %struct.BPMNode* %176, i64 0, i32 0
  store i32 %38, i32* %177, align 8, !tbaa !11
  %178 = getelementptr inbounds %struct.BPMNode, %struct.BPMNode* %176, i64 0, i32 1
  store i32 %39, i32* %178, align 4, !tbaa !13
  %179 = getelementptr inbounds %struct.BPMNode, %struct.BPMNode* %176, i64 0, i32 2
  store %struct.BPMNode* null, %struct.BPMNode** %179, align 8, !tbaa !34
  %180 = load %struct.BPMNode**, %struct.BPMNode*** %6, align 8, !tbaa !30
  %181 = getelementptr inbounds %struct.BPMNode*, %struct.BPMNode** %180, i64 %28
  store %struct.BPMNode* %176, %struct.BPMNode** %181, align 8, !tbaa !7
  br label %494

182:                                              ; preds = %14, %486
  %183 = phi i64 [ %8, %14 ], [ %188, %486 ]
  %184 = phi i32 [ %12, %14 ], [ %492, %486 ]
  %185 = phi %struct.BPMNode* [ %10, %14 ], [ %490, %486 ]
  %186 = phi %struct.BPMNode** [ %7, %14 ], [ %488, %486 ]
  %187 = load %struct.BPMNode**, %struct.BPMNode*** %15, align 8, !tbaa !29
  %188 = add nsw i64 %183, -1
  %189 = getelementptr inbounds %struct.BPMNode*, %struct.BPMNode** %187, i64 %188
  %190 = load %struct.BPMNode*, %struct.BPMNode** %189, align 8, !tbaa !7
  %191 = getelementptr inbounds %struct.BPMNode, %struct.BPMNode* %190, i64 0, i32 0
  %192 = load i32, i32* %191, align 8, !tbaa !11
  %193 = getelementptr inbounds %struct.BPMNode*, %struct.BPMNode** %186, i64 %188
  %194 = load %struct.BPMNode*, %struct.BPMNode** %193, align 8, !tbaa !7
  %195 = getelementptr inbounds %struct.BPMNode, %struct.BPMNode* %194, i64 0, i32 0
  %196 = load i32, i32* %195, align 8, !tbaa !11
  %197 = add nsw i32 %196, %192
  %198 = getelementptr inbounds %struct.BPMNode*, %struct.BPMNode** %187, i64 %183
  store %struct.BPMNode* %185, %struct.BPMNode** %198, align 8, !tbaa !7
  %199 = zext i32 %184 to i64
  %200 = icmp ult i64 %199, %2
  br i1 %200, label %201, label %347

201:                                              ; preds = %182
  %202 = getelementptr inbounds %struct.BPMNode, %struct.BPMNode* %1, i64 %199, i32 0
  %203 = load i32, i32* %202, align 8, !tbaa !11
  %204 = icmp sgt i32 %197, %203
  br i1 %204, label %205, label %347

205:                                              ; preds = %201
  %206 = add i32 %184, 1
  %207 = load %struct.BPMNode**, %struct.BPMNode*** %6, align 8, !tbaa !30
  %208 = getelementptr inbounds %struct.BPMNode*, %struct.BPMNode** %207, i64 %183
  %209 = load %struct.BPMNode*, %struct.BPMNode** %208, align 8, !tbaa !7
  %210 = getelementptr inbounds %struct.BPMNode, %struct.BPMNode* %209, i64 0, i32 2
  %211 = load %struct.BPMNode*, %struct.BPMNode** %210, align 8, !tbaa !34
  %212 = load i32, i32* %16, align 4, !tbaa !25
  %213 = load i32, i32* %17, align 8, !tbaa !26
  %214 = icmp ult i32 %212, %213
  br i1 %214, label %335, label %215

215:                                              ; preds = %205
  %216 = load i32, i32* %18, align 8, !tbaa !24
  %217 = icmp eq i32 %216, 0
  br i1 %217, label %236, label %218

218:                                              ; preds = %215
  %219 = load %struct.BPMNode*, %struct.BPMNode** %19, align 8, !tbaa !27
  %220 = zext i32 %216 to i64
  %221 = add nsw i64 %220, -1
  %222 = and i64 %220, 3
  %223 = icmp ult i64 %221, 3
  br i1 %223, label %226, label %224

224:                                              ; preds = %218
  %225 = and i64 %220, 4294967292
  br label %242

226:                                              ; preds = %242, %218
  %227 = phi i64 [ 0, %218 ], [ %252, %242 ]
  %228 = icmp eq i64 %222, 0
  br i1 %228, label %236, label %229

229:                                              ; preds = %226, %229
  %230 = phi i64 [ %233, %229 ], [ %227, %226 ]
  %231 = phi i64 [ %234, %229 ], [ 0, %226 ]
  %232 = getelementptr inbounds %struct.BPMNode, %struct.BPMNode* %219, i64 %230, i32 3
  store i32 0, i32* %232, align 8, !tbaa !33
  %233 = add nuw nsw i64 %230, 1
  %234 = add i64 %231, 1
  %235 = icmp eq i64 %234, %222
  br i1 %235, label %236, label %229, !llvm.loop !37

236:                                              ; preds = %226, %229, %215
  %237 = load i32, i32* %20, align 8, !tbaa !22
  %238 = icmp eq i32 %237, 0
  br i1 %238, label %279, label %239

239:                                              ; preds = %236
  %240 = load %struct.BPMNode**, %struct.BPMNode*** %15, align 8, !tbaa !29
  %241 = zext i32 %237 to i64
  br label %255

242:                                              ; preds = %242, %224
  %243 = phi i64 [ 0, %224 ], [ %252, %242 ]
  %244 = phi i64 [ 0, %224 ], [ %253, %242 ]
  %245 = getelementptr inbounds %struct.BPMNode, %struct.BPMNode* %219, i64 %243, i32 3
  store i32 0, i32* %245, align 8, !tbaa !33
  %246 = or i64 %243, 1
  %247 = getelementptr inbounds %struct.BPMNode, %struct.BPMNode* %219, i64 %246, i32 3
  store i32 0, i32* %247, align 8, !tbaa !33
  %248 = or i64 %243, 2
  %249 = getelementptr inbounds %struct.BPMNode, %struct.BPMNode* %219, i64 %248, i32 3
  store i32 0, i32* %249, align 8, !tbaa !33
  %250 = or i64 %243, 3
  %251 = getelementptr inbounds %struct.BPMNode, %struct.BPMNode* %219, i64 %250, i32 3
  store i32 0, i32* %251, align 8, !tbaa !33
  %252 = add nuw nsw i64 %243, 4
  %253 = add i64 %244, 4
  %254 = icmp eq i64 %253, %225
  br i1 %254, label %226, label %242

255:                                              ; preds = %276, %239
  %256 = phi i64 [ 0, %239 ], [ %277, %276 ]
  %257 = getelementptr inbounds %struct.BPMNode*, %struct.BPMNode** %240, i64 %256
  %258 = load %struct.BPMNode*, %struct.BPMNode** %257, align 8, !tbaa !7
  %259 = icmp eq %struct.BPMNode* %258, null
  br i1 %259, label %266, label %260

260:                                              ; preds = %255, %260
  %261 = phi %struct.BPMNode* [ %264, %260 ], [ %258, %255 ]
  %262 = getelementptr inbounds %struct.BPMNode, %struct.BPMNode* %261, i64 0, i32 3
  store i32 1, i32* %262, align 8, !tbaa !33
  %263 = getelementptr inbounds %struct.BPMNode, %struct.BPMNode* %261, i64 0, i32 2
  %264 = load %struct.BPMNode*, %struct.BPMNode** %263, align 8, !tbaa !7
  %265 = icmp eq %struct.BPMNode* %264, null
  br i1 %265, label %266, label %260

266:                                              ; preds = %260, %255
  %267 = getelementptr inbounds %struct.BPMNode*, %struct.BPMNode** %207, i64 %256
  %268 = load %struct.BPMNode*, %struct.BPMNode** %267, align 8, !tbaa !7
  %269 = icmp eq %struct.BPMNode* %268, null
  br i1 %269, label %276, label %270

270:                                              ; preds = %266, %270
  %271 = phi %struct.BPMNode* [ %274, %270 ], [ %268, %266 ]
  %272 = getelementptr inbounds %struct.BPMNode, %struct.BPMNode* %271, i64 0, i32 3
  store i32 1, i32* %272, align 8, !tbaa !33
  %273 = getelementptr inbounds %struct.BPMNode, %struct.BPMNode* %271, i64 0, i32 2
  %274 = load %struct.BPMNode*, %struct.BPMNode** %273, align 8, !tbaa !7
  %275 = icmp eq %struct.BPMNode* %274, null
  br i1 %275, label %276, label %270

276:                                              ; preds = %270, %266
  %277 = add nuw nsw i64 %256, 1
  %278 = icmp eq i64 %277, %241
  br i1 %278, label %279, label %255

279:                                              ; preds = %276, %236
  store i32 0, i32* %17, align 8, !tbaa !26
  br i1 %217, label %335, label %280

280:                                              ; preds = %279
  %281 = zext i32 %216 to i64
  %282 = and i64 %281, 1
  %283 = icmp eq i32 %216, 1
  br i1 %283, label %318, label %284

284:                                              ; preds = %280
  %285 = and i64 %281, 4294967294
  br label %286

286:                                              ; preds = %313, %284
  %287 = phi i32 [ 0, %284 ], [ %314, %313 ]
  %288 = phi i64 [ 0, %284 ], [ %315, %313 ]
  %289 = phi i64 [ 0, %284 ], [ %316, %313 ]
  %290 = load %struct.BPMNode*, %struct.BPMNode** %19, align 8, !tbaa !27
  %291 = getelementptr inbounds %struct.BPMNode, %struct.BPMNode* %290, i64 %288, i32 3
  %292 = load i32, i32* %291, align 8, !tbaa !33
  %293 = icmp eq i32 %292, 0
  br i1 %293, label %294, label %300

294:                                              ; preds = %286
  %295 = getelementptr inbounds %struct.BPMNode, %struct.BPMNode* %290, i64 %288
  %296 = load %struct.BPMNode**, %struct.BPMNode*** %21, align 8, !tbaa !28
  %297 = add i32 %287, 1
  store i32 %297, i32* %17, align 8, !tbaa !26
  %298 = zext i32 %287 to i64
  %299 = getelementptr inbounds %struct.BPMNode*, %struct.BPMNode** %296, i64 %298
  store %struct.BPMNode* %295, %struct.BPMNode** %299, align 8, !tbaa !7
  br label %300

300:                                              ; preds = %294, %286
  %301 = phi i32 [ %287, %286 ], [ %297, %294 ]
  %302 = or i64 %288, 1
  %303 = load %struct.BPMNode*, %struct.BPMNode** %19, align 8, !tbaa !27
  %304 = getelementptr inbounds %struct.BPMNode, %struct.BPMNode* %303, i64 %302, i32 3
  %305 = load i32, i32* %304, align 8, !tbaa !33
  %306 = icmp eq i32 %305, 0
  br i1 %306, label %307, label %313

307:                                              ; preds = %300
  %308 = getelementptr inbounds %struct.BPMNode, %struct.BPMNode* %303, i64 %302
  %309 = load %struct.BPMNode**, %struct.BPMNode*** %21, align 8, !tbaa !28
  %310 = add i32 %301, 1
  store i32 %310, i32* %17, align 8, !tbaa !26
  %311 = zext i32 %301 to i64
  %312 = getelementptr inbounds %struct.BPMNode*, %struct.BPMNode** %309, i64 %311
  store %struct.BPMNode* %308, %struct.BPMNode** %312, align 8, !tbaa !7
  br label %313

313:                                              ; preds = %307, %300
  %314 = phi i32 [ %301, %300 ], [ %310, %307 ]
  %315 = add nuw nsw i64 %288, 2
  %316 = add i64 %289, 2
  %317 = icmp eq i64 %316, %285
  br i1 %317, label %318, label %286

318:                                              ; preds = %313, %280
  %319 = phi i32 [ 0, %280 ], [ %314, %313 ]
  %320 = phi i64 [ 0, %280 ], [ %315, %313 ]
  %321 = icmp eq i64 %282, 0
  br i1 %321, label %333, label %322

322:                                              ; preds = %318
  %323 = load %struct.BPMNode*, %struct.BPMNode** %19, align 8, !tbaa !27
  %324 = getelementptr inbounds %struct.BPMNode, %struct.BPMNode* %323, i64 %320, i32 3
  %325 = load i32, i32* %324, align 8, !tbaa !33
  %326 = icmp eq i32 %325, 0
  br i1 %326, label %327, label %333

327:                                              ; preds = %322
  %328 = getelementptr inbounds %struct.BPMNode, %struct.BPMNode* %323, i64 %320
  %329 = load %struct.BPMNode**, %struct.BPMNode*** %21, align 8, !tbaa !28
  %330 = add i32 %319, 1
  store i32 %330, i32* %17, align 8, !tbaa !26
  %331 = zext i32 %319 to i64
  %332 = getelementptr inbounds %struct.BPMNode*, %struct.BPMNode** %329, i64 %331
  store %struct.BPMNode* %328, %struct.BPMNode** %332, align 8, !tbaa !7
  br label %333

333:                                              ; preds = %322, %327, %318
  %334 = load %struct.BPMNode**, %struct.BPMNode*** %6, align 8, !tbaa !30
  br label %335

335:                                              ; preds = %333, %205, %279
  %336 = phi %struct.BPMNode** [ %207, %205 ], [ %207, %279 ], [ %334, %333 ]
  %337 = phi i32 [ %212, %205 ], [ 0, %279 ], [ 0, %333 ]
  %338 = load %struct.BPMNode**, %struct.BPMNode*** %21, align 8, !tbaa !28
  %339 = add nuw i32 %337, 1
  store i32 %339, i32* %16, align 4, !tbaa !25
  %340 = zext i32 %337 to i64
  %341 = getelementptr inbounds %struct.BPMNode*, %struct.BPMNode** %338, i64 %340
  %342 = load %struct.BPMNode*, %struct.BPMNode** %341, align 8, !tbaa !7
  %343 = getelementptr inbounds %struct.BPMNode, %struct.BPMNode* %342, i64 0, i32 0
  store i32 %203, i32* %343, align 8, !tbaa !11
  %344 = getelementptr inbounds %struct.BPMNode, %struct.BPMNode* %342, i64 0, i32 1
  store i32 %206, i32* %344, align 4, !tbaa !13
  %345 = getelementptr inbounds %struct.BPMNode, %struct.BPMNode* %342, i64 0, i32 2
  store %struct.BPMNode* %211, %struct.BPMNode** %345, align 8, !tbaa !34
  %346 = getelementptr inbounds %struct.BPMNode*, %struct.BPMNode** %336, i64 %183
  store %struct.BPMNode* %342, %struct.BPMNode** %346, align 8, !tbaa !7
  br label %494

347:                                              ; preds = %201, %182
  %348 = load %struct.BPMNode**, %struct.BPMNode*** %6, align 8, !tbaa !30
  %349 = getelementptr inbounds %struct.BPMNode*, %struct.BPMNode** %348, i64 %188
  %350 = load %struct.BPMNode*, %struct.BPMNode** %349, align 8, !tbaa !7
  %351 = load i32, i32* %16, align 4, !tbaa !25
  %352 = load i32, i32* %17, align 8, !tbaa !26
  %353 = icmp ult i32 %351, %352
  br i1 %353, label %474, label %354

354:                                              ; preds = %347
  %355 = load i32, i32* %18, align 8, !tbaa !24
  %356 = icmp eq i32 %355, 0
  br i1 %356, label %375, label %357

357:                                              ; preds = %354
  %358 = load %struct.BPMNode*, %struct.BPMNode** %19, align 8, !tbaa !27
  %359 = zext i32 %355 to i64
  %360 = add nsw i64 %359, -1
  %361 = and i64 %359, 3
  %362 = icmp ult i64 %360, 3
  br i1 %362, label %365, label %363

363:                                              ; preds = %357
  %364 = and i64 %359, 4294967292
  br label %381

365:                                              ; preds = %381, %357
  %366 = phi i64 [ 0, %357 ], [ %391, %381 ]
  %367 = icmp eq i64 %361, 0
  br i1 %367, label %375, label %368

368:                                              ; preds = %365, %368
  %369 = phi i64 [ %372, %368 ], [ %366, %365 ]
  %370 = phi i64 [ %373, %368 ], [ 0, %365 ]
  %371 = getelementptr inbounds %struct.BPMNode, %struct.BPMNode* %358, i64 %369, i32 3
  store i32 0, i32* %371, align 8, !tbaa !33
  %372 = add nuw nsw i64 %369, 1
  %373 = add i64 %370, 1
  %374 = icmp eq i64 %373, %361
  br i1 %374, label %375, label %368, !llvm.loop !38

375:                                              ; preds = %365, %368, %354
  %376 = load i32, i32* %20, align 8, !tbaa !22
  %377 = icmp eq i32 %376, 0
  br i1 %377, label %418, label %378

378:                                              ; preds = %375
  %379 = load %struct.BPMNode**, %struct.BPMNode*** %15, align 8, !tbaa !29
  %380 = zext i32 %376 to i64
  br label %394

381:                                              ; preds = %381, %363
  %382 = phi i64 [ 0, %363 ], [ %391, %381 ]
  %383 = phi i64 [ 0, %363 ], [ %392, %381 ]
  %384 = getelementptr inbounds %struct.BPMNode, %struct.BPMNode* %358, i64 %382, i32 3
  store i32 0, i32* %384, align 8, !tbaa !33
  %385 = or i64 %382, 1
  %386 = getelementptr inbounds %struct.BPMNode, %struct.BPMNode* %358, i64 %385, i32 3
  store i32 0, i32* %386, align 8, !tbaa !33
  %387 = or i64 %382, 2
  %388 = getelementptr inbounds %struct.BPMNode, %struct.BPMNode* %358, i64 %387, i32 3
  store i32 0, i32* %388, align 8, !tbaa !33
  %389 = or i64 %382, 3
  %390 = getelementptr inbounds %struct.BPMNode, %struct.BPMNode* %358, i64 %389, i32 3
  store i32 0, i32* %390, align 8, !tbaa !33
  %391 = add nuw nsw i64 %382, 4
  %392 = add i64 %383, 4
  %393 = icmp eq i64 %392, %364
  br i1 %393, label %365, label %381

394:                                              ; preds = %415, %378
  %395 = phi i64 [ 0, %378 ], [ %416, %415 ]
  %396 = getelementptr inbounds %struct.BPMNode*, %struct.BPMNode** %379, i64 %395
  %397 = load %struct.BPMNode*, %struct.BPMNode** %396, align 8, !tbaa !7
  %398 = icmp eq %struct.BPMNode* %397, null
  br i1 %398, label %405, label %399

399:                                              ; preds = %394, %399
  %400 = phi %struct.BPMNode* [ %403, %399 ], [ %397, %394 ]
  %401 = getelementptr inbounds %struct.BPMNode, %struct.BPMNode* %400, i64 0, i32 3
  store i32 1, i32* %401, align 8, !tbaa !33
  %402 = getelementptr inbounds %struct.BPMNode, %struct.BPMNode* %400, i64 0, i32 2
  %403 = load %struct.BPMNode*, %struct.BPMNode** %402, align 8, !tbaa !7
  %404 = icmp eq %struct.BPMNode* %403, null
  br i1 %404, label %405, label %399

405:                                              ; preds = %399, %394
  %406 = getelementptr inbounds %struct.BPMNode*, %struct.BPMNode** %348, i64 %395
  %407 = load %struct.BPMNode*, %struct.BPMNode** %406, align 8, !tbaa !7
  %408 = icmp eq %struct.BPMNode* %407, null
  br i1 %408, label %415, label %409

409:                                              ; preds = %405, %409
  %410 = phi %struct.BPMNode* [ %413, %409 ], [ %407, %405 ]
  %411 = getelementptr inbounds %struct.BPMNode, %struct.BPMNode* %410, i64 0, i32 3
  store i32 1, i32* %411, align 8, !tbaa !33
  %412 = getelementptr inbounds %struct.BPMNode, %struct.BPMNode* %410, i64 0, i32 2
  %413 = load %struct.BPMNode*, %struct.BPMNode** %412, align 8, !tbaa !7
  %414 = icmp eq %struct.BPMNode* %413, null
  br i1 %414, label %415, label %409

415:                                              ; preds = %409, %405
  %416 = add nuw nsw i64 %395, 1
  %417 = icmp eq i64 %416, %380
  br i1 %417, label %418, label %394

418:                                              ; preds = %415, %375
  store i32 0, i32* %17, align 8, !tbaa !26
  br i1 %356, label %474, label %419

419:                                              ; preds = %418
  %420 = zext i32 %355 to i64
  %421 = and i64 %420, 1
  %422 = icmp eq i32 %355, 1
  br i1 %422, label %457, label %423

423:                                              ; preds = %419
  %424 = and i64 %420, 4294967294
  br label %425

425:                                              ; preds = %452, %423
  %426 = phi i32 [ 0, %423 ], [ %453, %452 ]
  %427 = phi i64 [ 0, %423 ], [ %454, %452 ]
  %428 = phi i64 [ 0, %423 ], [ %455, %452 ]
  %429 = load %struct.BPMNode*, %struct.BPMNode** %19, align 8, !tbaa !27
  %430 = getelementptr inbounds %struct.BPMNode, %struct.BPMNode* %429, i64 %427, i32 3
  %431 = load i32, i32* %430, align 8, !tbaa !33
  %432 = icmp eq i32 %431, 0
  br i1 %432, label %433, label %439

433:                                              ; preds = %425
  %434 = getelementptr inbounds %struct.BPMNode, %struct.BPMNode* %429, i64 %427
  %435 = load %struct.BPMNode**, %struct.BPMNode*** %21, align 8, !tbaa !28
  %436 = add i32 %426, 1
  store i32 %436, i32* %17, align 8, !tbaa !26
  %437 = zext i32 %426 to i64
  %438 = getelementptr inbounds %struct.BPMNode*, %struct.BPMNode** %435, i64 %437
  store %struct.BPMNode* %434, %struct.BPMNode** %438, align 8, !tbaa !7
  br label %439

439:                                              ; preds = %433, %425
  %440 = phi i32 [ %426, %425 ], [ %436, %433 ]
  %441 = or i64 %427, 1
  %442 = load %struct.BPMNode*, %struct.BPMNode** %19, align 8, !tbaa !27
  %443 = getelementptr inbounds %struct.BPMNode, %struct.BPMNode* %442, i64 %441, i32 3
  %444 = load i32, i32* %443, align 8, !tbaa !33
  %445 = icmp eq i32 %444, 0
  br i1 %445, label %446, label %452

446:                                              ; preds = %439
  %447 = getelementptr inbounds %struct.BPMNode, %struct.BPMNode* %442, i64 %441
  %448 = load %struct.BPMNode**, %struct.BPMNode*** %21, align 8, !tbaa !28
  %449 = add i32 %440, 1
  store i32 %449, i32* %17, align 8, !tbaa !26
  %450 = zext i32 %440 to i64
  %451 = getelementptr inbounds %struct.BPMNode*, %struct.BPMNode** %448, i64 %450
  store %struct.BPMNode* %447, %struct.BPMNode** %451, align 8, !tbaa !7
  br label %452

452:                                              ; preds = %446, %439
  %453 = phi i32 [ %440, %439 ], [ %449, %446 ]
  %454 = add nuw nsw i64 %427, 2
  %455 = add i64 %428, 2
  %456 = icmp eq i64 %455, %424
  br i1 %456, label %457, label %425

457:                                              ; preds = %452, %419
  %458 = phi i32 [ 0, %419 ], [ %453, %452 ]
  %459 = phi i64 [ 0, %419 ], [ %454, %452 ]
  %460 = icmp eq i64 %421, 0
  br i1 %460, label %472, label %461

461:                                              ; preds = %457
  %462 = load %struct.BPMNode*, %struct.BPMNode** %19, align 8, !tbaa !27
  %463 = getelementptr inbounds %struct.BPMNode, %struct.BPMNode* %462, i64 %459, i32 3
  %464 = load i32, i32* %463, align 8, !tbaa !33
  %465 = icmp eq i32 %464, 0
  br i1 %465, label %466, label %472

466:                                              ; preds = %461
  %467 = getelementptr inbounds %struct.BPMNode, %struct.BPMNode* %462, i64 %459
  %468 = load %struct.BPMNode**, %struct.BPMNode*** %21, align 8, !tbaa !28
  %469 = add i32 %458, 1
  store i32 %469, i32* %17, align 8, !tbaa !26
  %470 = zext i32 %458 to i64
  %471 = getelementptr inbounds %struct.BPMNode*, %struct.BPMNode** %468, i64 %470
  store %struct.BPMNode* %467, %struct.BPMNode** %471, align 8, !tbaa !7
  br label %472

472:                                              ; preds = %461, %466, %457
  %473 = load %struct.BPMNode**, %struct.BPMNode*** %6, align 8, !tbaa !30
  br label %474

474:                                              ; preds = %472, %347, %418
  %475 = phi %struct.BPMNode** [ %348, %347 ], [ %348, %418 ], [ %473, %472 ]
  %476 = phi i32 [ %351, %347 ], [ 0, %418 ], [ 0, %472 ]
  %477 = load %struct.BPMNode**, %struct.BPMNode*** %21, align 8, !tbaa !28
  %478 = add nuw i32 %476, 1
  store i32 %478, i32* %16, align 4, !tbaa !25
  %479 = zext i32 %476 to i64
  %480 = getelementptr inbounds %struct.BPMNode*, %struct.BPMNode** %477, i64 %479
  %481 = load %struct.BPMNode*, %struct.BPMNode** %480, align 8, !tbaa !7
  %482 = getelementptr inbounds %struct.BPMNode, %struct.BPMNode* %481, i64 0, i32 0
  store i32 %197, i32* %482, align 8, !tbaa !11
  %483 = getelementptr inbounds %struct.BPMNode, %struct.BPMNode* %481, i64 0, i32 1
  store i32 %184, i32* %483, align 4, !tbaa !13
  %484 = getelementptr inbounds %struct.BPMNode, %struct.BPMNode* %481, i64 0, i32 2
  store %struct.BPMNode* %350, %struct.BPMNode** %484, align 8, !tbaa !34
  %485 = getelementptr inbounds %struct.BPMNode*, %struct.BPMNode** %475, i64 %183
  store %struct.BPMNode* %481, %struct.BPMNode** %485, align 8, !tbaa !7
  br i1 %26, label %486, label %494

486:                                              ; preds = %474
  %487 = trunc i64 %188 to i32
  tail call fastcc void @_ZL10boundaryPMP8BPMListsP7BPMNodemii(%struct.BPMLists* noundef nonnull %0, %struct.BPMNode* noundef %1, i64 noundef %2, i32 noundef %487, i32 noundef %4)
  %488 = load %struct.BPMNode**, %struct.BPMNode*** %6, align 8, !tbaa !30
  %489 = getelementptr inbounds %struct.BPMNode*, %struct.BPMNode** %488, i64 %188
  %490 = load %struct.BPMNode*, %struct.BPMNode** %489, align 8, !tbaa !7
  %491 = getelementptr inbounds %struct.BPMNode, %struct.BPMNode* %490, i64 0, i32 1
  %492 = load i32, i32* %491, align 4, !tbaa !13
  %493 = icmp eq i32 %487, 0
  br i1 %493, label %27, label %182

494:                                              ; preds = %474, %169, %335, %27
  ret void
}

; Function Attrs: argmemonly nofree nosync nounwind willreturn
declare void @llvm.lifetime.end.p0i8(i64 immarg, i8* nocapture) #5

; Function Attrs: nounwind uwtable
define dso_local noundef i32 @_Z15lodepng_inflatePPhPmPKhmPK25LodePNGDecompressSettings(i8** nocapture noundef %0, i64* nocapture noundef %1, i8* noundef %2, i64 noundef %3, %struct.LodePNGDecompressSettings* nocapture noundef readonly %4) local_unnamed_addr #3 {
  %6 = alloca %struct.ucvector, align 8
  %7 = bitcast %struct.ucvector* %6 to i8*
  call void @llvm.lifetime.start.p0i8(i64 24, i8* nonnull %7) #25
  %8 = load i8*, i8** %0, align 8, !tbaa !7
  %9 = load i64, i64* %1, align 8, !tbaa !3
  %10 = getelementptr inbounds %struct.ucvector, %struct.ucvector* %6, i64 0, i32 0
  store i8* %8, i8** %10, align 8, !tbaa !39, !alias.scope !41
  %11 = getelementptr inbounds %struct.ucvector, %struct.ucvector* %6, i64 0, i32 1
  store i64 %9, i64* %11, align 8, !tbaa !44, !alias.scope !41
  %12 = getelementptr inbounds %struct.ucvector, %struct.ucvector* %6, i64 0, i32 2
  store i64 %9, i64* %12, align 8, !tbaa !45, !alias.scope !41
  %13 = call fastcc noundef i32 @_ZL16lodepng_inflatevP8ucvectorPKhmPK25LodePNGDecompressSettings(%struct.ucvector* noundef nonnull %6, i8* noundef %2, i64 noundef %3, %struct.LodePNGDecompressSettings* noundef %4)
  %14 = load i8*, i8** %10, align 8, !tbaa !39
  store i8* %14, i8** %0, align 8, !tbaa !7
  %15 = load i64, i64* %11, align 8, !tbaa !44
  store i64 %15, i64* %1, align 8, !tbaa !3
  call void @llvm.lifetime.end.p0i8(i64 24, i8* nonnull %7) #25
  ret i32 %13
}

; Function Attrs: nounwind uwtable
define internal fastcc noundef i32 @_ZL16lodepng_inflatevP8ucvectorPKhmPK25LodePNGDecompressSettings(%struct.ucvector* nocapture noundef %0, i8* noundef %1, i64 noundef %2, %struct.LodePNGDecompressSettings* nocapture noundef readonly %3) unnamed_addr #3 {
  %5 = alloca %struct.HuffmanTree, align 8
  %6 = alloca %struct.HuffmanTree, align 8
  %7 = alloca %struct.HuffmanTree, align 8
  %8 = tail call { i64, i1 } @llvm.umul.with.overflow.i64(i64 %2, i64 8) #25
  %9 = extractvalue { i64, i1 } %8, 0
  %10 = extractvalue { i64, i1 } %8, 1
  %11 = icmp ugt i64 %9, -65
  %12 = or i1 %10, %11
  br i1 %12, label %1219, label %13

13:                                               ; preds = %4
  %14 = getelementptr inbounds %struct.LodePNGDecompressSettings, %struct.LodePNGDecompressSettings* %3, i64 0, i32 1
  %15 = getelementptr inbounds %struct.ucvector, %struct.ucvector* %0, i64 0, i32 1
  %16 = getelementptr inbounds %struct.ucvector, %struct.ucvector* %0, i64 0, i32 2
  %17 = getelementptr inbounds %struct.ucvector, %struct.ucvector* %0, i64 0, i32 0
  %18 = getelementptr inbounds %struct.LodePNGDecompressSettings, %struct.LodePNGDecompressSettings* %3, i64 0, i32 2
  %19 = bitcast %struct.HuffmanTree* %6 to i8*
  %20 = bitcast %struct.HuffmanTree* %7 to i8*
  %21 = getelementptr inbounds %struct.HuffmanTree, %struct.HuffmanTree* %6, i64 0, i32 4
  %22 = bitcast i8** %21 to i8*
  %23 = getelementptr inbounds %struct.HuffmanTree, %struct.HuffmanTree* %7, i64 0, i32 4
  %24 = bitcast i8** %23 to i8*
  %25 = bitcast %struct.HuffmanTree* %5 to i8*
  %26 = getelementptr inbounds %struct.HuffmanTree, %struct.HuffmanTree* %5, i64 0, i32 4
  %27 = bitcast i8** %26 to i8*
  %28 = getelementptr inbounds %struct.HuffmanTree, %struct.HuffmanTree* %5, i64 0, i32 1
  %29 = bitcast i32** %28 to i8**
  %30 = getelementptr inbounds %struct.HuffmanTree, %struct.HuffmanTree* %5, i64 0, i32 3
  %31 = getelementptr inbounds %struct.HuffmanTree, %struct.HuffmanTree* %5, i64 0, i32 2
  %32 = getelementptr inbounds %struct.HuffmanTree, %struct.HuffmanTree* %5, i64 0, i32 5
  %33 = getelementptr inbounds %struct.HuffmanTree, %struct.HuffmanTree* %6, i64 0, i32 1
  %34 = bitcast i32** %33 to i8**
  %35 = getelementptr inbounds %struct.HuffmanTree, %struct.HuffmanTree* %6, i64 0, i32 3
  %36 = getelementptr inbounds %struct.HuffmanTree, %struct.HuffmanTree* %6, i64 0, i32 2
  %37 = getelementptr inbounds %struct.HuffmanTree, %struct.HuffmanTree* %7, i64 0, i32 1
  %38 = bitcast i32** %37 to i8**
  %39 = getelementptr inbounds %struct.HuffmanTree, %struct.HuffmanTree* %7, i64 0, i32 3
  %40 = getelementptr inbounds %struct.HuffmanTree, %struct.HuffmanTree* %7, i64 0, i32 2
  %41 = bitcast %struct.HuffmanTree* %5 to i8**
  %42 = bitcast i16** %32 to i8**
  %43 = getelementptr inbounds %struct.HuffmanTree, %struct.HuffmanTree* %6, i64 0, i32 5
  %44 = getelementptr inbounds %struct.HuffmanTree, %struct.HuffmanTree* %7, i64 0, i32 5
  %45 = bitcast i16** %43 to i8**
  %46 = bitcast i16** %44 to i8**
  %47 = bitcast %struct.HuffmanTree* %6 to i8**
  %48 = bitcast %struct.HuffmanTree* %7 to i8**
  br label %49

49:                                               ; preds = %13, %1217
  %50 = phi i64 [ 0, %13 ], [ %1211, %1217 ]
  %51 = sub i64 %9, %50
  %52 = icmp ult i64 %51, 3
  br i1 %52, label %1219, label %53

53:                                               ; preds = %49
  %54 = lshr i64 %50, 3
  %55 = add nuw nsw i64 %54, 1
  %56 = icmp ult i64 %55, %2
  br i1 %56, label %57, label %66

57:                                               ; preds = %53
  %58 = getelementptr inbounds i8, i8* %1, i64 %54
  %59 = load i8, i8* %58, align 1, !tbaa !14
  %60 = zext i8 %59 to i32
  %61 = getelementptr inbounds i8, i8* %1, i64 %55
  %62 = load i8, i8* %61, align 1, !tbaa !14
  %63 = zext i8 %62 to i32
  %64 = shl nuw nsw i32 %63, 8
  %65 = or i32 %64, %60
  br label %72

66:                                               ; preds = %53
  %67 = icmp ult i64 %54, %2
  br i1 %67, label %68, label %72

68:                                               ; preds = %66
  %69 = getelementptr inbounds i8, i8* %1, i64 %54
  %70 = load i8, i8* %69, align 1, !tbaa !14
  %71 = zext i8 %70 to i32
  br label %72

72:                                               ; preds = %57, %66, %68
  %73 = phi i32 [ %65, %57 ], [ %71, %68 ], [ 0, %66 ]
  %74 = trunc i64 %50 to i32
  %75 = and i32 %74, 7
  %76 = lshr i32 %73, %75
  %77 = and i32 %76, 1
  %78 = lshr i32 %76, 1
  %79 = and i32 %78, 3
  %80 = add i64 %50, 3
  switch i32 %79, label %139 [
    i32 3, label %1219
    i32 0, label %81
  ]

81:                                               ; preds = %72
  %82 = add i64 %50, 10
  %83 = lshr i64 %82, 3
  %84 = add nuw nsw i64 %83, 4
  %85 = icmp ult i64 %84, %2
  br i1 %85, label %86, label %1219

86:                                               ; preds = %81
  %87 = getelementptr inbounds i8, i8* %1, i64 %83
  %88 = load i8, i8* %87, align 1, !tbaa !14
  %89 = zext i8 %88 to i32
  %90 = add nuw nsw i64 %83, 1
  %91 = getelementptr inbounds i8, i8* %1, i64 %90
  %92 = load i8, i8* %91, align 1, !tbaa !14
  %93 = zext i8 %92 to i32
  %94 = shl nuw nsw i32 %93, 8
  %95 = or i32 %94, %89
  %96 = load i32, i32* %14, align 4, !tbaa !46
  %97 = icmp eq i32 %96, 0
  br i1 %97, label %98, label %111

98:                                               ; preds = %86
  %99 = add nuw nsw i64 %83, 2
  %100 = getelementptr inbounds i8, i8* %1, i64 %99
  %101 = load i8, i8* %100, align 1, !tbaa !14
  %102 = zext i8 %101 to i32
  %103 = add nuw nsw i64 %83, 3
  %104 = getelementptr inbounds i8, i8* %1, i64 %103
  %105 = load i8, i8* %104, align 1, !tbaa !14
  %106 = zext i8 %105 to i32
  %107 = shl nuw nsw i32 %106, 8
  %108 = or i32 %107, %102
  %109 = add nuw nsw i32 %108, %95
  %110 = icmp eq i32 %109, 65535
  br i1 %110, label %111, label %1219

111:                                              ; preds = %98, %86
  %112 = load i64, i64* %15, align 8, !tbaa !44
  %113 = zext i32 %95 to i64
  %114 = add i64 %112, %113
  store i64 %114, i64* %15, align 8, !tbaa !44
  %115 = load i64, i64* %16, align 8, !tbaa !45
  %116 = icmp ult i64 %115, %114
  br i1 %116, label %117, label %124

117:                                              ; preds = %111
  %118 = lshr i64 %115, 1
  %119 = add i64 %118, %114
  %120 = load i8*, i8** %17, align 8, !tbaa !39
  %121 = tail call i8* @realloc(i8* noundef %120, i64 noundef %119) #25
  %122 = icmp eq i8* %121, null
  br i1 %122, label %1219, label %123

123:                                              ; preds = %117
  store i64 %119, i64* %16, align 8, !tbaa !45
  store i8* %121, i8** %17, align 8, !tbaa !39
  br label %124

124:                                              ; preds = %123, %111
  %125 = add nuw nsw i64 %84, %113
  %126 = icmp ugt i64 %125, %2
  br i1 %126, label %1219, label %127

127:                                              ; preds = %124
  %128 = icmp eq i32 %95, 0
  br i1 %128, label %136, label %129

129:                                              ; preds = %127
  %130 = load i8*, i8** %17, align 8, !tbaa !39
  %131 = load i64, i64* %15, align 8, !tbaa !44
  %132 = getelementptr inbounds i8, i8* %130, i64 %131
  %133 = sub nsw i64 0, %113
  %134 = getelementptr inbounds i8, i8* %132, i64 %133
  %135 = getelementptr inbounds i8, i8* %1, i64 %84
  tail call void @llvm.memcpy.p0i8.p0i8.i64(i8* align 1 %134, i8* nonnull align 1 %135, i64 %113, i1 false) #25, !tbaa !14, !alias.scope !48
  br label %136

136:                                              ; preds = %127, %129
  %137 = phi i64 [ %125, %129 ], [ %84, %127 ]
  %138 = shl i64 %137, 3
  br label %1210

139:                                              ; preds = %72
  %140 = load i64, i64* %18, align 8, !tbaa !52
  call void @llvm.lifetime.start.p0i8(i64 40, i8* nonnull %19) #25
  call void @llvm.lifetime.start.p0i8(i64 40, i8* nonnull %20) #25
  %141 = load i64, i64* %15, align 8, !tbaa !44
  %142 = add i64 %141, 260
  %143 = load i64, i64* %16, align 8, !tbaa !45
  %144 = icmp ult i64 %143, %142
  br i1 %144, label %145, label %153

145:                                              ; preds = %139
  %146 = lshr i64 %143, 1
  %147 = add i64 %146, %142
  %148 = load i8*, i8** %17, align 8, !tbaa !39
  %149 = tail call i8* @realloc(i8* noundef %148, i64 noundef %147) #25
  %150 = icmp eq i8* %149, null
  br i1 %150, label %151, label %152

151:                                              ; preds = %145
  call void @llvm.lifetime.end.p0i8(i64 40, i8* nonnull %20) #25
  call void @llvm.lifetime.end.p0i8(i64 40, i8* nonnull %19) #25
  br label %1219

152:                                              ; preds = %145
  store i64 %147, i64* %16, align 8, !tbaa !45
  store i8* %149, i8** %17, align 8, !tbaa !39
  br label %153

153:                                              ; preds = %152, %139
  call void @llvm.memset.p0i8.i64(i8* noundef nonnull align 8 dereferenceable(16) %19, i8 0, i64 16, i1 false) #25
  call void @llvm.memset.p0i8.i64(i8* noundef nonnull align 8 dereferenceable(16) %22, i8 0, i64 16, i1 false) #25
  call void @llvm.memset.p0i8.i64(i8* noundef nonnull align 8 dereferenceable(16) %20, i8 0, i64 16, i1 false) #25
  call void @llvm.memset.p0i8.i64(i8* noundef nonnull align 8 dereferenceable(16) %24, i8 0, i64 16, i1 false) #25
  %154 = icmp eq i32 %79, 1
  br i1 %154, label %155, label %179

155:                                              ; preds = %153
  %156 = call fastcc noundef i32 @_ZL23generateFixedLitLenTreeP11HuffmanTree(%struct.HuffmanTree* noundef nonnull %6) #25
  %157 = icmp eq i32 %156, 0
  br i1 %157, label %158, label %713

158:                                              ; preds = %155
  %159 = tail call noalias dereferenceable_or_null(128) i8* @malloc(i64 noundef 128) #25
  store i8* %159, i8** %38, align 8, !tbaa !53
  %160 = icmp eq i8* %159, null
  %161 = bitcast i8* %159 to i32*
  br i1 %160, label %713, label %162

162:                                              ; preds = %158
  %163 = bitcast i8* %159 to <4 x i32>*
  store <4 x i32> <i32 5, i32 5, i32 5, i32 5>, <4 x i32>* %163, align 4, !tbaa !9
  %164 = getelementptr inbounds i32, i32* %161, i64 4
  %165 = bitcast i32* %164 to <4 x i32>*
  store <4 x i32> <i32 5, i32 5, i32 5, i32 5>, <4 x i32>* %165, align 4, !tbaa !9
  %166 = getelementptr inbounds i32, i32* %161, i64 8
  %167 = bitcast i32* %166 to <4 x i32>*
  store <4 x i32> <i32 5, i32 5, i32 5, i32 5>, <4 x i32>* %167, align 4, !tbaa !9
  %168 = getelementptr inbounds i32, i32* %161, i64 12
  %169 = bitcast i32* %168 to <4 x i32>*
  store <4 x i32> <i32 5, i32 5, i32 5, i32 5>, <4 x i32>* %169, align 4, !tbaa !9
  %170 = getelementptr inbounds i32, i32* %161, i64 16
  %171 = bitcast i32* %170 to <4 x i32>*
  store <4 x i32> <i32 5, i32 5, i32 5, i32 5>, <4 x i32>* %171, align 4, !tbaa !9
  %172 = getelementptr inbounds i32, i32* %161, i64 20
  %173 = bitcast i32* %172 to <4 x i32>*
  store <4 x i32> <i32 5, i32 5, i32 5, i32 5>, <4 x i32>* %173, align 4, !tbaa !9
  %174 = getelementptr inbounds i32, i32* %161, i64 24
  %175 = bitcast i32* %174 to <4 x i32>*
  store <4 x i32> <i32 5, i32 5, i32 5, i32 5>, <4 x i32>* %175, align 4, !tbaa !9
  %176 = getelementptr inbounds i32, i32* %161, i64 28
  %177 = bitcast i32* %176 to <4 x i32>*
  store <4 x i32> <i32 5, i32 5, i32 5, i32 5>, <4 x i32>* %177, align 4, !tbaa !9
  store i32 32, i32* %39, align 4, !tbaa !55
  store i32 15, i32* %40, align 8, !tbaa !56
  %178 = call fastcc noundef i32 @_ZL28HuffmanTree_makeFromLengths2P11HuffmanTree(%struct.HuffmanTree* noundef nonnull %7) #25
  br label %706

179:                                              ; preds = %153
  call void @llvm.lifetime.start.p0i8(i64 40, i8* nonnull %25) #25
  %180 = sub i64 %9, %80
  %181 = icmp ult i64 %180, 14
  br i1 %181, label %703, label %182

182:                                              ; preds = %179
  %183 = lshr i64 %80, 3
  %184 = add nuw nsw i64 %183, 2
  %185 = icmp ult i64 %184, %2
  br i1 %185, label %186, label %200

186:                                              ; preds = %182
  %187 = getelementptr inbounds i8, i8* %1, i64 %183
  %188 = load i8, i8* %187, align 1, !tbaa !14
  %189 = zext i8 %188 to i32
  %190 = add nuw nsw i64 %183, 1
  %191 = getelementptr inbounds i8, i8* %1, i64 %190
  %192 = load i8, i8* %191, align 1, !tbaa !14
  %193 = zext i8 %192 to i32
  %194 = shl nuw nsw i32 %193, 8
  %195 = or i32 %194, %189
  %196 = getelementptr inbounds i8, i8* %1, i64 %184
  %197 = load i8, i8* %196, align 1, !tbaa !14
  %198 = zext i8 %197 to i32
  %199 = shl nuw nsw i32 %198, 16
  br label %215

200:                                              ; preds = %182
  %201 = icmp ult i64 %183, %2
  br i1 %201, label %202, label %206

202:                                              ; preds = %200
  %203 = getelementptr inbounds i8, i8* %1, i64 %183
  %204 = load i8, i8* %203, align 1, !tbaa !14
  %205 = zext i8 %204 to i32
  br label %206

206:                                              ; preds = %202, %200
  %207 = phi i32 [ %205, %202 ], [ 0, %200 ]
  %208 = add nuw nsw i64 %183, 1
  %209 = icmp ult i64 %208, %2
  br i1 %209, label %210, label %219

210:                                              ; preds = %206
  %211 = getelementptr inbounds i8, i8* %1, i64 %208
  %212 = load i8, i8* %211, align 1, !tbaa !14
  %213 = zext i8 %212 to i32
  %214 = shl nuw nsw i32 %213, 8
  br label %215

215:                                              ; preds = %210, %186
  %216 = phi i32 [ %199, %186 ], [ %207, %210 ]
  %217 = phi i32 [ %195, %186 ], [ %214, %210 ]
  %218 = or i32 %217, %216
  br label %219

219:                                              ; preds = %215, %206
  %220 = phi i32 [ %207, %206 ], [ %218, %215 ]
  %221 = trunc i64 %80 to i32
  %222 = and i32 %221, 7
  %223 = lshr i32 %220, %222
  %224 = and i32 %223, 31
  %225 = lshr i32 %223, 5
  %226 = add nuw nsw i32 %224, 257
  %227 = and i32 %225, 31
  %228 = lshr i32 %223, 10
  %229 = add nuw nsw i32 %227, 1
  %230 = and i32 %228, 15
  %231 = add i64 %50, 17
  %232 = add nuw nsw i32 %230, 4
  %233 = tail call noalias dereferenceable_or_null(76) i8* @malloc(i64 noundef 76) #25
  %234 = bitcast i8* %233 to i32*
  %235 = icmp eq i8* %233, null
  br i1 %235, label %703, label %236

236:                                              ; preds = %219
  call void @llvm.memset.p0i8.i64(i8* noundef nonnull align 8 dereferenceable(16) %25, i8 0, i64 16, i1 false) #25
  call void @llvm.memset.p0i8.i64(i8* noundef nonnull align 8 dereferenceable(16) %27, i8 0, i64 16, i1 false) #25
  %237 = mul nuw nsw i32 %232, 3
  %238 = zext i32 %237 to i64
  %239 = add i64 %231, %238
  %240 = icmp uge i64 %239, %231
  %241 = icmp ule i64 %239, %9
  %242 = and i1 %240, %241
  br i1 %242, label %243, label %694

243:                                              ; preds = %236
  %244 = zext i32 %232 to i64
  br label %266

245:                                              ; preds = %287
  %246 = icmp eq i32 %232, 19
  br i1 %246, label %327, label %247

247:                                              ; preds = %245
  %248 = and i32 %228, 3
  %249 = xor i32 %248, 3
  %250 = icmp eq i32 %249, 0
  br i1 %250, label %262, label %251

251:                                              ; preds = %247, %251
  %252 = phi i32 [ %259, %251 ], [ %232, %247 ]
  %253 = phi i32 [ %260, %251 ], [ 0, %247 ]
  %254 = zext i32 %252 to i64
  %255 = getelementptr inbounds [19 x i32], [19 x i32]* @_ZL10CLCL_ORDER, i64 0, i64 %254
  %256 = load i32, i32* %255, align 4, !tbaa !9
  %257 = zext i32 %256 to i64
  %258 = getelementptr inbounds i32, i32* %234, i64 %257
  store i32 0, i32* %258, align 4, !tbaa !9
  %259 = add i32 %252, 1
  %260 = add i32 %253, 1
  %261 = icmp eq i32 %260, %249
  br i1 %261, label %262, label %251, !llvm.loop !57

262:                                              ; preds = %251, %247
  %263 = phi i32 [ %232, %247 ], [ %259, %251 ]
  %264 = add nsw i32 %230, -12
  %265 = icmp ult i32 %264, 3
  br i1 %265, label %327, label %300

266:                                              ; preds = %287, %243
  %267 = phi i64 [ %231, %243 ], [ %293, %287 ]
  %268 = phi i64 [ 0, %243 ], [ %298, %287 ]
  %269 = lshr i64 %267, 3
  %270 = add nuw nsw i64 %269, 1
  %271 = icmp ult i64 %270, %2
  br i1 %271, label %272, label %281

272:                                              ; preds = %266
  %273 = getelementptr inbounds i8, i8* %1, i64 %269
  %274 = load i8, i8* %273, align 1, !tbaa !14
  %275 = zext i8 %274 to i32
  %276 = getelementptr inbounds i8, i8* %1, i64 %270
  %277 = load i8, i8* %276, align 1, !tbaa !14
  %278 = zext i8 %277 to i32
  %279 = shl nuw nsw i32 %278, 8
  %280 = or i32 %279, %275
  br label %287

281:                                              ; preds = %266
  %282 = icmp ult i64 %269, %2
  br i1 %282, label %283, label %287

283:                                              ; preds = %281
  %284 = getelementptr inbounds i8, i8* %1, i64 %269
  %285 = load i8, i8* %284, align 1, !tbaa !14
  %286 = zext i8 %285 to i32
  br label %287

287:                                              ; preds = %283, %281, %272
  %288 = phi i32 [ %280, %272 ], [ %286, %283 ], [ 0, %281 ]
  %289 = trunc i64 %267 to i32
  %290 = and i32 %289, 7
  %291 = lshr i32 %288, %290
  %292 = and i32 %291, 7
  %293 = add i64 %267, 3
  %294 = getelementptr inbounds [19 x i32], [19 x i32]* @_ZL10CLCL_ORDER, i64 0, i64 %268
  %295 = load i32, i32* %294, align 4, !tbaa !9
  %296 = zext i32 %295 to i64
  %297 = getelementptr inbounds i32, i32* %234, i64 %296
  store i32 %292, i32* %297, align 4, !tbaa !9
  %298 = add nuw nsw i64 %268, 1
  %299 = icmp eq i64 %298, %244
  br i1 %299, label %245, label %266

300:                                              ; preds = %262, %300
  %301 = phi i32 [ %325, %300 ], [ %263, %262 ]
  %302 = zext i32 %301 to i64
  %303 = getelementptr inbounds [19 x i32], [19 x i32]* @_ZL10CLCL_ORDER, i64 0, i64 %302
  %304 = load i32, i32* %303, align 4, !tbaa !9
  %305 = zext i32 %304 to i64
  %306 = getelementptr inbounds i32, i32* %234, i64 %305
  store i32 0, i32* %306, align 4, !tbaa !9
  %307 = add i32 %301, 1
  %308 = zext i32 %307 to i64
  %309 = getelementptr inbounds [19 x i32], [19 x i32]* @_ZL10CLCL_ORDER, i64 0, i64 %308
  %310 = load i32, i32* %309, align 4, !tbaa !9
  %311 = zext i32 %310 to i64
  %312 = getelementptr inbounds i32, i32* %234, i64 %311
  store i32 0, i32* %312, align 4, !tbaa !9
  %313 = add i32 %301, 2
  %314 = zext i32 %313 to i64
  %315 = getelementptr inbounds [19 x i32], [19 x i32]* @_ZL10CLCL_ORDER, i64 0, i64 %314
  %316 = load i32, i32* %315, align 4, !tbaa !9
  %317 = zext i32 %316 to i64
  %318 = getelementptr inbounds i32, i32* %234, i64 %317
  store i32 0, i32* %318, align 4, !tbaa !9
  %319 = add i32 %301, 3
  %320 = zext i32 %319 to i64
  %321 = getelementptr inbounds [19 x i32], [19 x i32]* @_ZL10CLCL_ORDER, i64 0, i64 %320
  %322 = load i32, i32* %321, align 4, !tbaa !9
  %323 = zext i32 %322 to i64
  %324 = getelementptr inbounds i32, i32* %234, i64 %323
  store i32 0, i32* %324, align 4, !tbaa !9
  %325 = add i32 %301, 4
  %326 = icmp eq i32 %325, 19
  br i1 %326, label %327, label %300

327:                                              ; preds = %262, %300, %245
  %328 = tail call noalias dereferenceable_or_null(76) i8* @malloc(i64 noundef 76) #25
  store i8* %328, i8** %29, align 8, !tbaa !53
  %329 = icmp eq i8* %328, null
  %330 = bitcast i8* %328 to i32*
  br i1 %329, label %694, label %331

331:                                              ; preds = %327
  %332 = bitcast i8* %233 to <4 x i32>*
  %333 = load <4 x i32>, <4 x i32>* %332, align 4, !tbaa !9
  %334 = bitcast i8* %328 to <4 x i32>*
  store <4 x i32> %333, <4 x i32>* %334, align 4, !tbaa !9
  %335 = getelementptr inbounds i32, i32* %234, i64 4
  %336 = getelementptr inbounds i32, i32* %330, i64 4
  %337 = bitcast i32* %335 to <4 x i32>*
  %338 = load <4 x i32>, <4 x i32>* %337, align 4, !tbaa !9
  %339 = bitcast i32* %336 to <4 x i32>*
  store <4 x i32> %338, <4 x i32>* %339, align 4, !tbaa !9
  %340 = getelementptr inbounds i32, i32* %234, i64 8
  %341 = getelementptr inbounds i32, i32* %330, i64 8
  %342 = bitcast i32* %340 to <4 x i32>*
  %343 = load <4 x i32>, <4 x i32>* %342, align 4, !tbaa !9
  %344 = bitcast i32* %341 to <4 x i32>*
  store <4 x i32> %343, <4 x i32>* %344, align 4, !tbaa !9
  %345 = getelementptr inbounds i32, i32* %234, i64 12
  %346 = getelementptr inbounds i32, i32* %330, i64 12
  %347 = bitcast i32* %345 to <4 x i32>*
  %348 = load <4 x i32>, <4 x i32>* %347, align 4, !tbaa !9
  %349 = bitcast i32* %346 to <4 x i32>*
  store <4 x i32> %348, <4 x i32>* %349, align 4, !tbaa !9
  %350 = getelementptr inbounds i32, i32* %234, i64 16
  %351 = load i32, i32* %350, align 4, !tbaa !9
  %352 = getelementptr inbounds i32, i32* %330, i64 16
  store i32 %351, i32* %352, align 4, !tbaa !9
  %353 = getelementptr inbounds i32, i32* %234, i64 17
  %354 = load i32, i32* %353, align 4, !tbaa !9
  %355 = getelementptr inbounds i32, i32* %330, i64 17
  store i32 %354, i32* %355, align 4, !tbaa !9
  %356 = getelementptr inbounds i32, i32* %234, i64 18
  %357 = load i32, i32* %356, align 4, !tbaa !9
  %358 = getelementptr inbounds i32, i32* %330, i64 18
  store i32 %357, i32* %358, align 4, !tbaa !9
  store i32 19, i32* %30, align 4, !tbaa !55
  store i32 7, i32* %31, align 8, !tbaa !56
  %359 = call fastcc noundef i32 @_ZL28HuffmanTree_makeFromLengths2P11HuffmanTree(%struct.HuffmanTree* noundef nonnull %5) #25
  %360 = icmp eq i32 %359, 0
  br i1 %360, label %361, label %694

361:                                              ; preds = %331
  %362 = tail call noalias dereferenceable_or_null(1152) i8* @malloc(i64 noundef 1152) #25
  %363 = bitcast i8* %362 to i32*
  %364 = tail call noalias dereferenceable_or_null(128) i8* @malloc(i64 noundef 128) #25
  %365 = bitcast i8* %364 to i32*
  %366 = icmp ne i8* %362, null
  %367 = icmp ne i8* %364, null
  %368 = and i1 %366, %367
  br i1 %368, label %369, label %694

369:                                              ; preds = %361
  tail call void @llvm.memset.p0i8.i64(i8* noundef nonnull align 1 dereferenceable(1152) %362, i8 0, i64 1152, i1 false) #25, !tbaa !14, !alias.scope !58
  tail call void @llvm.memset.p0i8.i64(i8* noundef nonnull align 1 dereferenceable(128) %364, i8 0, i64 128, i1 false) #25, !tbaa !14, !alias.scope !61
  %370 = add nuw nsw i32 %229, %226
  %371 = load i8*, i8** %26, align 8, !tbaa !64
  %372 = load i16*, i16** %32, align 8, !tbaa !65
  %373 = add nuw nsw i32 %224, 258
  %374 = sub nuw nsw i32 -258, %224
  %375 = zext i32 %226 to i64
  br label %376

376:                                              ; preds = %626, %369
  %377 = phi i64 [ %293, %369 ], [ %622, %626 ]
  %378 = phi i32 [ 0, %369 ], [ %624, %626 ]
  %379 = phi i32 [ 0, %369 ], [ %623, %626 ]
  %380 = lshr i64 %377, 3
  %381 = add nuw nsw i64 %380, 3
  %382 = icmp ult i64 %381, %2
  br i1 %382, label %383, label %403

383:                                              ; preds = %376
  %384 = getelementptr inbounds i8, i8* %1, i64 %380
  %385 = load i8, i8* %384, align 1, !tbaa !14
  %386 = zext i8 %385 to i32
  %387 = add nuw nsw i64 %380, 1
  %388 = getelementptr inbounds i8, i8* %1, i64 %387
  %389 = load i8, i8* %388, align 1, !tbaa !14
  %390 = zext i8 %389 to i32
  %391 = shl nuw nsw i32 %390, 8
  %392 = or i32 %391, %386
  %393 = add nuw nsw i64 %380, 2
  %394 = getelementptr inbounds i8, i8* %1, i64 %393
  %395 = load i8, i8* %394, align 1, !tbaa !14
  %396 = zext i8 %395 to i32
  %397 = shl nuw nsw i32 %396, 16
  %398 = or i32 %392, %397
  %399 = getelementptr inbounds i8, i8* %1, i64 %381
  %400 = load i8, i8* %399, align 1, !tbaa !14
  %401 = zext i8 %400 to i32
  %402 = shl nuw i32 %401, 24
  br label %428

403:                                              ; preds = %376
  %404 = icmp ult i64 %380, %2
  br i1 %404, label %405, label %409

405:                                              ; preds = %403
  %406 = getelementptr inbounds i8, i8* %1, i64 %380
  %407 = load i8, i8* %406, align 1, !tbaa !14
  %408 = zext i8 %407 to i32
  br label %409

409:                                              ; preds = %405, %403
  %410 = phi i32 [ %408, %405 ], [ 0, %403 ]
  %411 = add nuw nsw i64 %380, 1
  %412 = icmp ult i64 %411, %2
  br i1 %412, label %413, label %419

413:                                              ; preds = %409
  %414 = getelementptr inbounds i8, i8* %1, i64 %411
  %415 = load i8, i8* %414, align 1, !tbaa !14
  %416 = zext i8 %415 to i32
  %417 = shl nuw nsw i32 %416, 8
  %418 = or i32 %417, %410
  br label %419

419:                                              ; preds = %413, %409
  %420 = phi i32 [ %418, %413 ], [ %410, %409 ]
  %421 = add nuw nsw i64 %380, 2
  %422 = icmp ult i64 %421, %2
  br i1 %422, label %423, label %432

423:                                              ; preds = %419
  %424 = getelementptr inbounds i8, i8* %1, i64 %421
  %425 = load i8, i8* %424, align 1, !tbaa !14
  %426 = zext i8 %425 to i32
  %427 = shl nuw nsw i32 %426, 16
  br label %428

428:                                              ; preds = %423, %383
  %429 = phi i32 [ %402, %383 ], [ %420, %423 ]
  %430 = phi i32 [ %398, %383 ], [ %427, %423 ]
  %431 = or i32 %430, %429
  br label %432

432:                                              ; preds = %428, %419
  %433 = phi i32 [ %420, %419 ], [ %431, %428 ]
  %434 = trunc i64 %377 to i32
  %435 = and i32 %434, 7
  %436 = lshr i32 %433, %435
  %437 = and i32 %436, 511
  %438 = zext i32 %437 to i64
  %439 = getelementptr inbounds i8, i8* %371, i64 %438
  %440 = load i8, i8* %439, align 1, !tbaa !14
  %441 = getelementptr inbounds i16, i16* %372, i64 %438
  %442 = load i16, i16* %441, align 2, !tbaa !66
  %443 = icmp ult i8 %440, 10
  br i1 %443, label %444, label %449

444:                                              ; preds = %432
  %445 = zext i8 %440 to i64
  %446 = zext i8 %440 to i32
  %447 = lshr i32 %436, %446
  %448 = add i64 %377, %445
  br label %470

449:                                              ; preds = %432
  %450 = zext i8 %440 to i32
  %451 = lshr i32 %436, 9
  %452 = add i64 %377, 9
  %453 = add nsw i32 %450, -9
  %454 = shl nsw i32 -1, %453
  %455 = xor i32 %454, -1
  %456 = and i32 %451, %455
  %457 = trunc i32 %456 to i16
  %458 = add i16 %442, %457
  %459 = zext i16 %458 to i64
  %460 = getelementptr inbounds i8, i8* %371, i64 %459
  %461 = load i8, i8* %460, align 1, !tbaa !14
  %462 = zext i8 %461 to i64
  %463 = add nuw nsw i64 %462, 4294967287
  %464 = and i64 %463, 4294967295
  %465 = trunc i64 %463 to i32
  %466 = lshr i32 %451, %465
  %467 = add i64 %452, %464
  %468 = getelementptr inbounds i16, i16* %372, i64 %459
  %469 = load i16, i16* %468, align 2, !tbaa !66
  br label %470

470:                                              ; preds = %449, %444
  %471 = phi i64 [ %448, %444 ], [ %467, %449 ]
  %472 = phi i32 [ %447, %444 ], [ %466, %449 ]
  %473 = phi i16 [ %442, %444 ], [ %469, %449 ]
  %474 = icmp ult i16 %473, 16
  br i1 %474, label %475, label %484

475:                                              ; preds = %470
  %476 = zext i16 %473 to i32
  %477 = icmp ult i32 %378, %226
  %478 = select i1 %477, i32 0, i32 %226
  %479 = sub i32 %378, %478
  %480 = select i1 %477, i32* %363, i32* %365
  %481 = zext i32 %479 to i64
  %482 = getelementptr inbounds i32, i32* %480, i64 %481
  store i32 %476, i32* %482, align 4, !tbaa !9
  %483 = add i32 %378, 1
  br label %621

484:                                              ; preds = %470
  switch i16 %473, label %694 [
    i16 16, label %485
    i16 17, label %567
    i16 18, label %588
  ]

485:                                              ; preds = %484
  %486 = icmp eq i32 %378, 0
  br i1 %486, label %694, label %487

487:                                              ; preds = %485
  %488 = and i32 %472, 3
  %489 = add i64 %471, 2
  %490 = icmp ult i32 %378, %373
  %491 = add i32 %378, -1
  %492 = zext i32 %491 to i64
  %493 = getelementptr inbounds i32, i32* %363, i64 %492
  %494 = add i32 %374, %378
  %495 = zext i32 %494 to i64
  %496 = getelementptr inbounds i32, i32* %365, i64 %495
  %497 = select i1 %490, i32* %493, i32* %496
  %498 = load i32, i32* %497, align 4, !tbaa !9
  %499 = zext i32 %378 to i64
  %500 = tail call i32 @llvm.usub.sat.i32(i32 %370, i32 %378) #25
  %501 = add nuw nsw i32 %488, 2
  %502 = icmp ugt i32 %370, %378
  br i1 %502, label %503, label %609

503:                                              ; preds = %487
  %504 = icmp ult i32 %378, %226
  %505 = sub i32 %378, %226
  %506 = zext i32 %505 to i64
  %507 = getelementptr inbounds i32, i32* %365, i64 %506
  %508 = getelementptr inbounds i32, i32* %363, i64 %499
  %509 = select i1 %504, i32* %508, i32* %507
  store i32 %498, i32* %509, align 4, !tbaa !9
  %510 = add nuw nsw i64 %499, 1
  %511 = icmp eq i32 %500, 1
  br i1 %511, label %609, label %512

512:                                              ; preds = %503
  %513 = trunc i64 %510 to i32
  %514 = icmp ult i64 %510, %375
  %515 = sub i32 %513, %226
  %516 = zext i32 %515 to i64
  %517 = getelementptr inbounds i32, i32* %365, i64 %516
  %518 = getelementptr inbounds i32, i32* %363, i64 %510
  %519 = select i1 %514, i32* %518, i32* %517
  store i32 %498, i32* %519, align 4, !tbaa !9
  %520 = add nuw nsw i64 %499, 2
  %521 = icmp eq i32 %500, 2
  br i1 %521, label %609, label %522

522:                                              ; preds = %512
  %523 = trunc i64 %520 to i32
  %524 = icmp ult i64 %520, %375
  %525 = sub i32 %523, %226
  %526 = zext i32 %525 to i64
  %527 = getelementptr inbounds i32, i32* %365, i64 %526
  %528 = getelementptr inbounds i32, i32* %363, i64 %520
  %529 = select i1 %524, i32* %528, i32* %527
  store i32 %498, i32* %529, align 4, !tbaa !9
  %530 = add nuw nsw i64 %499, 3
  %531 = icmp eq i32 %488, 0
  br i1 %531, label %609, label %532

532:                                              ; preds = %522
  %533 = icmp eq i32 %500, 3
  br i1 %533, label %609, label %534

534:                                              ; preds = %532
  %535 = trunc i64 %530 to i32
  %536 = icmp ult i64 %530, %375
  %537 = sub i32 %535, %226
  %538 = zext i32 %537 to i64
  %539 = getelementptr inbounds i32, i32* %365, i64 %538
  %540 = getelementptr inbounds i32, i32* %363, i64 %530
  %541 = select i1 %536, i32* %540, i32* %539
  store i32 %498, i32* %541, align 4, !tbaa !9
  %542 = add nuw nsw i64 %499, 4
  %543 = icmp eq i32 %501, 3
  br i1 %543, label %609, label %544

544:                                              ; preds = %534
  %545 = icmp eq i32 %500, 4
  br i1 %545, label %609, label %546

546:                                              ; preds = %544
  %547 = trunc i64 %542 to i32
  %548 = icmp ult i64 %542, %375
  %549 = sub i32 %547, %226
  %550 = zext i32 %549 to i64
  %551 = getelementptr inbounds i32, i32* %365, i64 %550
  %552 = getelementptr inbounds i32, i32* %363, i64 %542
  %553 = select i1 %548, i32* %552, i32* %551
  store i32 %498, i32* %553, align 4, !tbaa !9
  %554 = add nuw nsw i64 %499, 5
  %555 = icmp eq i32 %501, 4
  br i1 %555, label %609, label %556

556:                                              ; preds = %546
  %557 = icmp eq i32 %500, 5
  br i1 %557, label %609, label %558

558:                                              ; preds = %556
  %559 = trunc i64 %554 to i32
  %560 = icmp ult i64 %554, %375
  %561 = sub i32 %559, %226
  %562 = zext i32 %561 to i64
  %563 = getelementptr inbounds i32, i32* %365, i64 %562
  %564 = getelementptr inbounds i32, i32* %363, i64 %554
  %565 = select i1 %560, i32* %564, i32* %563
  store i32 %498, i32* %565, align 4, !tbaa !9
  %566 = add nuw nsw i64 %499, 6
  br label %609

567:                                              ; preds = %484
  %568 = and i32 %472, 7
  %569 = add i64 %471, 3
  %570 = zext i32 %378 to i64
  %571 = tail call i32 @llvm.usub.sat.i32(i32 %370, i32 %378) #25
  %572 = add nuw nsw i32 %568, 2
  br label %573

573:                                              ; preds = %577, %567
  %574 = phi i64 [ %570, %567 ], [ %585, %577 ]
  %575 = phi i32 [ 0, %567 ], [ %586, %577 ]
  %576 = icmp eq i32 %575, %571
  br i1 %576, label %613, label %577

577:                                              ; preds = %573
  %578 = trunc i64 %574 to i32
  %579 = icmp ult i64 %574, %375
  %580 = sub i32 %578, %226
  %581 = zext i32 %580 to i64
  %582 = getelementptr inbounds i32, i32* %365, i64 %581
  %583 = getelementptr inbounds i32, i32* %363, i64 %574
  %584 = select i1 %579, i32* %583, i32* %582
  store i32 0, i32* %584, align 4, !tbaa !9
  %585 = add nuw nsw i64 %574, 1
  %586 = add nuw nsw i32 %575, 1
  %587 = icmp eq i32 %575, %572
  br i1 %587, label %613, label %573

588:                                              ; preds = %484
  %589 = and i32 %472, 127
  %590 = add i64 %471, 7
  %591 = zext i32 %378 to i64
  %592 = tail call i32 @llvm.usub.sat.i32(i32 %370, i32 %378) #25
  %593 = add nuw nsw i32 %589, 10
  br label %594

594:                                              ; preds = %598, %588
  %595 = phi i64 [ %591, %588 ], [ %606, %598 ]
  %596 = phi i32 [ 0, %588 ], [ %607, %598 ]
  %597 = icmp eq i32 %596, %592
  br i1 %597, label %617, label %598

598:                                              ; preds = %594
  %599 = trunc i64 %595 to i32
  %600 = icmp ult i64 %595, %375
  %601 = sub i32 %599, %226
  %602 = zext i32 %601 to i64
  %603 = getelementptr inbounds i32, i32* %365, i64 %602
  %604 = getelementptr inbounds i32, i32* %363, i64 %595
  %605 = select i1 %600, i32* %604, i32* %603
  store i32 0, i32* %605, align 4, !tbaa !9
  %606 = add nuw nsw i64 %595, 1
  %607 = add nuw nsw i32 %596, 1
  %608 = icmp eq i32 %596, %593
  br i1 %608, label %617, label %594

609:                                              ; preds = %558, %556, %546, %544, %534, %532, %522, %512, %503, %487
  %610 = phi i64 [ %499, %487 ], [ %510, %503 ], [ %520, %512 ], [ %530, %522 ], [ %530, %532 ], [ %542, %534 ], [ %542, %544 ], [ %554, %546 ], [ %554, %556 ], [ %566, %558 ]
  %611 = phi i32 [ 13, %487 ], [ 13, %503 ], [ 13, %512 ], [ %379, %522 ], [ 13, %532 ], [ %379, %534 ], [ 13, %544 ], [ %379, %546 ], [ 13, %556 ], [ %379, %558 ]
  %612 = trunc i64 %610 to i32
  br label %621

613:                                              ; preds = %577, %573
  %614 = phi i64 [ %574, %573 ], [ %585, %577 ]
  %615 = phi i32 [ 14, %573 ], [ %379, %577 ]
  %616 = trunc i64 %614 to i32
  br label %621

617:                                              ; preds = %598, %594
  %618 = phi i64 [ %595, %594 ], [ %606, %598 ]
  %619 = phi i32 [ 15, %594 ], [ %379, %598 ]
  %620 = trunc i64 %618 to i32
  br label %621

621:                                              ; preds = %617, %613, %609, %475
  %622 = phi i64 [ %471, %475 ], [ %590, %617 ], [ %569, %613 ], [ %489, %609 ]
  %623 = phi i32 [ %379, %475 ], [ %619, %617 ], [ %615, %613 ], [ %611, %609 ]
  %624 = phi i32 [ %483, %475 ], [ %620, %617 ], [ %616, %613 ], [ %612, %609 ]
  %625 = icmp ugt i64 %622, %9
  br i1 %625, label %694, label %626

626:                                              ; preds = %621
  %627 = icmp ult i32 %624, %370
  br i1 %627, label %376, label %628

628:                                              ; preds = %626
  %629 = icmp eq i32 %623, 0
  br i1 %629, label %630, label %694

630:                                              ; preds = %628
  %631 = getelementptr inbounds i8, i8* %362, i64 1024
  %632 = bitcast i8* %631 to i32*
  %633 = load i32, i32* %632, align 4, !tbaa !9
  %634 = icmp eq i32 %633, 0
  br i1 %634, label %694, label %635

635:                                              ; preds = %630
  %636 = tail call noalias dereferenceable_or_null(1152) i8* @malloc(i64 noundef 1152) #25
  store i8* %636, i8** %34, align 8, !tbaa !53
  %637 = icmp eq i8* %636, null
  %638 = bitcast i8* %636 to i32*
  br i1 %637, label %694, label %639

639:                                              ; preds = %635, %639
  %640 = phi i64 [ %645, %639 ], [ 0, %635 ]
  %641 = getelementptr inbounds i32, i32* %363, i64 %640
  %642 = load i32, i32* %641, align 4, !tbaa !9
  %643 = getelementptr inbounds i32, i32* %638, i64 %640
  store i32 %642, i32* %643, align 4, !tbaa !9
  %644 = add nuw nsw i64 %640, 1
  %645 = and i64 %644, 4294967295
  %646 = icmp eq i64 %645, 288
  br i1 %646, label %647, label %639

647:                                              ; preds = %639
  store i32 288, i32* %35, align 4, !tbaa !55
  store i32 15, i32* %36, align 8, !tbaa !56
  %648 = call fastcc noundef i32 @_ZL28HuffmanTree_makeFromLengths2P11HuffmanTree(%struct.HuffmanTree* noundef nonnull %6) #25
  %649 = icmp eq i32 %648, 0
  br i1 %649, label %650, label %694

650:                                              ; preds = %647
  %651 = tail call noalias dereferenceable_or_null(128) i8* @malloc(i64 noundef 128) #25
  store i8* %651, i8** %38, align 8, !tbaa !53
  %652 = icmp eq i8* %651, null
  %653 = bitcast i8* %651 to i32*
  br i1 %652, label %694, label %654

654:                                              ; preds = %650
  %655 = bitcast i8* %364 to <4 x i32>*
  %656 = load <4 x i32>, <4 x i32>* %655, align 4, !tbaa !9
  %657 = bitcast i8* %651 to <4 x i32>*
  store <4 x i32> %656, <4 x i32>* %657, align 4, !tbaa !9
  %658 = getelementptr inbounds i32, i32* %365, i64 4
  %659 = getelementptr inbounds i32, i32* %653, i64 4
  %660 = bitcast i32* %658 to <4 x i32>*
  %661 = load <4 x i32>, <4 x i32>* %660, align 4, !tbaa !9
  %662 = bitcast i32* %659 to <4 x i32>*
  store <4 x i32> %661, <4 x i32>* %662, align 4, !tbaa !9
  %663 = getelementptr inbounds i32, i32* %365, i64 8
  %664 = getelementptr inbounds i32, i32* %653, i64 8
  %665 = bitcast i32* %663 to <4 x i32>*
  %666 = load <4 x i32>, <4 x i32>* %665, align 4, !tbaa !9
  %667 = bitcast i32* %664 to <4 x i32>*
  store <4 x i32> %666, <4 x i32>* %667, align 4, !tbaa !9
  %668 = getelementptr inbounds i32, i32* %365, i64 12
  %669 = getelementptr inbounds i32, i32* %653, i64 12
  %670 = bitcast i32* %668 to <4 x i32>*
  %671 = load <4 x i32>, <4 x i32>* %670, align 4, !tbaa !9
  %672 = bitcast i32* %669 to <4 x i32>*
  store <4 x i32> %671, <4 x i32>* %672, align 4, !tbaa !9
  %673 = getelementptr inbounds i32, i32* %365, i64 16
  %674 = getelementptr inbounds i32, i32* %653, i64 16
  %675 = bitcast i32* %673 to <4 x i32>*
  %676 = load <4 x i32>, <4 x i32>* %675, align 4, !tbaa !9
  %677 = bitcast i32* %674 to <4 x i32>*
  store <4 x i32> %676, <4 x i32>* %677, align 4, !tbaa !9
  %678 = getelementptr inbounds i32, i32* %365, i64 20
  %679 = getelementptr inbounds i32, i32* %653, i64 20
  %680 = bitcast i32* %678 to <4 x i32>*
  %681 = load <4 x i32>, <4 x i32>* %680, align 4, !tbaa !9
  %682 = bitcast i32* %679 to <4 x i32>*
  store <4 x i32> %681, <4 x i32>* %682, align 4, !tbaa !9
  %683 = getelementptr inbounds i32, i32* %365, i64 24
  %684 = getelementptr inbounds i32, i32* %653, i64 24
  %685 = bitcast i32* %683 to <4 x i32>*
  %686 = load <4 x i32>, <4 x i32>* %685, align 4, !tbaa !9
  %687 = bitcast i32* %684 to <4 x i32>*
  store <4 x i32> %686, <4 x i32>* %687, align 4, !tbaa !9
  %688 = getelementptr inbounds i32, i32* %365, i64 28
  %689 = getelementptr inbounds i32, i32* %653, i64 28
  %690 = bitcast i32* %688 to <4 x i32>*
  %691 = load <4 x i32>, <4 x i32>* %690, align 4, !tbaa !9
  %692 = bitcast i32* %689 to <4 x i32>*
  store <4 x i32> %691, <4 x i32>* %692, align 4, !tbaa !9
  store i32 32, i32* %39, align 4, !tbaa !55
  store i32 15, i32* %40, align 8, !tbaa !56
  %693 = call fastcc noundef i32 @_ZL28HuffmanTree_makeFromLengths2P11HuffmanTree(%struct.HuffmanTree* noundef nonnull %7) #25
  br label %694

694:                                              ; preds = %621, %485, %484, %654, %650, %647, %635, %630, %628, %361, %331, %327, %236
  %695 = phi i64 [ %293, %327 ], [ %622, %630 ], [ %622, %635 ], [ %622, %650 ], [ %622, %654 ], [ %622, %647 ], [ %622, %628 ], [ %293, %361 ], [ %293, %331 ], [ %231, %236 ], [ %471, %485 ], [ %471, %484 ], [ %622, %621 ]
  %696 = phi i32 [ 83, %327 ], [ 64, %630 ], [ 83, %635 ], [ 83, %650 ], [ %693, %654 ], [ %648, %647 ], [ %623, %628 ], [ 83, %361 ], [ %359, %331 ], [ 50, %236 ], [ 54, %485 ], [ 16, %484 ], [ 50, %621 ]
  %697 = phi i8* [ null, %327 ], [ %362, %630 ], [ %362, %635 ], [ %362, %650 ], [ %362, %654 ], [ %362, %647 ], [ %362, %628 ], [ %362, %361 ], [ null, %331 ], [ null, %236 ], [ %362, %484 ], [ %362, %485 ], [ %362, %621 ]
  %698 = phi i8* [ null, %327 ], [ %364, %630 ], [ %364, %635 ], [ %364, %650 ], [ %364, %654 ], [ %364, %647 ], [ %364, %628 ], [ %364, %361 ], [ null, %331 ], [ null, %236 ], [ %364, %484 ], [ %364, %485 ], [ %364, %621 ]
  tail call void @free(i8* noundef %233) #25
  tail call void @free(i8* noundef %697) #25
  tail call void @free(i8* noundef %698) #25
  %699 = load i8*, i8** %41, align 8, !tbaa !68
  tail call void @free(i8* noundef %699) #25
  %700 = load i8*, i8** %29, align 8, !tbaa !53
  tail call void @free(i8* noundef %700) #25
  %701 = load i8*, i8** %26, align 8, !tbaa !64
  tail call void @free(i8* noundef %701) #25
  %702 = load i8*, i8** %42, align 8, !tbaa !65
  tail call void @free(i8* noundef %702) #25
  br label %703

703:                                              ; preds = %694, %219, %179
  %704 = phi i64 [ %80, %179 ], [ %231, %219 ], [ %695, %694 ]
  %705 = phi i32 [ 49, %179 ], [ 83, %219 ], [ %696, %694 ]
  call void @llvm.lifetime.end.p0i8(i64 40, i8* nonnull %25) #25
  br label %706

706:                                              ; preds = %703, %162
  %707 = phi i64 [ %80, %162 ], [ %704, %703 ]
  %708 = phi i32 [ %178, %162 ], [ %705, %703 ]
  %709 = icmp eq i32 %708, 0
  br i1 %709, label %720, label %710

710:                                              ; preds = %706
  %711 = load i8*, i8** %23, align 8, !tbaa !64
  %712 = load i8*, i8** %46, align 8, !tbaa !65
  br label %713

713:                                              ; preds = %710, %158, %155
  %714 = phi i8* [ null, %158 ], [ %712, %710 ], [ null, %155 ]
  %715 = phi i8* [ null, %158 ], [ %711, %710 ], [ null, %155 ]
  %716 = phi i64 [ %80, %158 ], [ %707, %710 ], [ %80, %155 ]
  %717 = phi i32 [ 83, %158 ], [ %708, %710 ], [ %156, %155 ]
  %718 = load i8*, i8** %21, align 8, !tbaa !64
  %719 = load i8*, i8** %45, align 8, !tbaa !65
  br label %1198

720:                                              ; preds = %706
  %721 = load i8*, i8** %21, align 8, !tbaa !64
  %722 = load i16*, i16** %43, align 8, !tbaa !65
  %723 = load i8*, i8** %23, align 8
  %724 = load i16*, i16** %44, align 8
  %725 = icmp eq i64 %140, 0
  %726 = bitcast i16* %722 to i8*
  %727 = bitcast i16* %724 to i8*
  br label %728

728:                                              ; preds = %1194, %720
  %729 = phi i64 [ %707, %720 ], [ %1170, %1194 ]
  %730 = lshr i64 %729, 3
  %731 = add nuw nsw i64 %730, 4
  %732 = icmp ult i64 %731, %2
  br i1 %732, label %733, label %765

733:                                              ; preds = %728
  %734 = getelementptr inbounds i8, i8* %1, i64 %730
  %735 = load i8, i8* %734, align 1, !tbaa !14
  %736 = zext i8 %735 to i32
  %737 = add nuw nsw i64 %730, 1
  %738 = getelementptr inbounds i8, i8* %1, i64 %737
  %739 = load i8, i8* %738, align 1, !tbaa !14
  %740 = zext i8 %739 to i32
  %741 = shl nuw nsw i32 %740, 8
  %742 = or i32 %741, %736
  %743 = add nuw nsw i64 %730, 2
  %744 = getelementptr inbounds i8, i8* %1, i64 %743
  %745 = load i8, i8* %744, align 1, !tbaa !14
  %746 = zext i8 %745 to i32
  %747 = shl nuw nsw i32 %746, 16
  %748 = or i32 %742, %747
  %749 = add nuw nsw i64 %730, 3
  %750 = getelementptr inbounds i8, i8* %1, i64 %749
  %751 = load i8, i8* %750, align 1, !tbaa !14
  %752 = zext i8 %751 to i32
  %753 = shl nuw i32 %752, 24
  %754 = or i32 %748, %753
  %755 = trunc i64 %729 to i32
  %756 = and i32 %755, 7
  %757 = lshr i32 %754, %756
  %758 = getelementptr inbounds i8, i8* %1, i64 %731
  %759 = load i8, i8* %758, align 1, !tbaa !14
  %760 = zext i8 %759 to i32
  %761 = shl nuw i32 %760, 24
  %762 = sub nuw nsw i32 8, %756
  %763 = shl i32 %761, %762
  %764 = or i32 %763, %757
  br label %806

765:                                              ; preds = %728
  %766 = icmp ult i64 %730, %2
  br i1 %766, label %767, label %771

767:                                              ; preds = %765
  %768 = getelementptr inbounds i8, i8* %1, i64 %730
  %769 = load i8, i8* %768, align 1, !tbaa !14
  %770 = zext i8 %769 to i32
  br label %771

771:                                              ; preds = %767, %765
  %772 = phi i32 [ %770, %767 ], [ 0, %765 ]
  %773 = add nuw nsw i64 %730, 1
  %774 = icmp ult i64 %773, %2
  br i1 %774, label %775, label %781

775:                                              ; preds = %771
  %776 = getelementptr inbounds i8, i8* %1, i64 %773
  %777 = load i8, i8* %776, align 1, !tbaa !14
  %778 = zext i8 %777 to i32
  %779 = shl nuw nsw i32 %778, 8
  %780 = or i32 %779, %772
  br label %781

781:                                              ; preds = %775, %771
  %782 = phi i32 [ %780, %775 ], [ %772, %771 ]
  %783 = add nuw nsw i64 %730, 2
  %784 = icmp ult i64 %783, %2
  br i1 %784, label %785, label %791

785:                                              ; preds = %781
  %786 = getelementptr inbounds i8, i8* %1, i64 %783
  %787 = load i8, i8* %786, align 1, !tbaa !14
  %788 = zext i8 %787 to i32
  %789 = shl nuw nsw i32 %788, 16
  %790 = or i32 %789, %782
  br label %791

791:                                              ; preds = %785, %781
  %792 = phi i32 [ %790, %785 ], [ %782, %781 ]
  %793 = add nuw nsw i64 %730, 3
  %794 = icmp ult i64 %793, %2
  br i1 %794, label %795, label %801

795:                                              ; preds = %791
  %796 = getelementptr inbounds i8, i8* %1, i64 %793
  %797 = load i8, i8* %796, align 1, !tbaa !14
  %798 = zext i8 %797 to i32
  %799 = shl nuw i32 %798, 24
  %800 = or i32 %799, %792
  br label %801

801:                                              ; preds = %795, %791
  %802 = phi i32 [ %800, %795 ], [ %792, %791 ]
  %803 = trunc i64 %729 to i32
  %804 = and i32 %803, 7
  %805 = lshr i32 %802, %804
  br label %806

806:                                              ; preds = %801, %733
  %807 = phi i32 [ %805, %801 ], [ %764, %733 ]
  %808 = and i32 %807, 511
  %809 = zext i32 %808 to i64
  %810 = getelementptr inbounds i8, i8* %721, i64 %809
  %811 = load i8, i8* %810, align 1, !tbaa !14
  %812 = getelementptr inbounds i16, i16* %722, i64 %809
  %813 = load i16, i16* %812, align 2, !tbaa !66
  %814 = icmp ult i8 %811, 10
  br i1 %814, label %815, label %820

815:                                              ; preds = %806
  %816 = zext i8 %811 to i64
  %817 = zext i8 %811 to i32
  %818 = lshr i32 %807, %817
  %819 = add i64 %729, %816
  br label %841

820:                                              ; preds = %806
  %821 = zext i8 %811 to i32
  %822 = lshr i32 %807, 9
  %823 = add i64 %729, 9
  %824 = add nsw i32 %821, -9
  %825 = shl nsw i32 -1, %824
  %826 = xor i32 %825, -1
  %827 = and i32 %822, %826
  %828 = trunc i32 %827 to i16
  %829 = add i16 %813, %828
  %830 = zext i16 %829 to i64
  %831 = getelementptr inbounds i8, i8* %721, i64 %830
  %832 = load i8, i8* %831, align 1, !tbaa !14
  %833 = zext i8 %832 to i64
  %834 = add nuw nsw i64 %833, 4294967287
  %835 = and i64 %834, 4294967295
  %836 = trunc i64 %834 to i32
  %837 = lshr i32 %822, %836
  %838 = add i64 %823, %835
  %839 = getelementptr inbounds i16, i16* %722, i64 %830
  %840 = load i16, i16* %839, align 2, !tbaa !66
  br label %841

841:                                              ; preds = %820, %815
  %842 = phi i64 [ %819, %815 ], [ %838, %820 ]
  %843 = phi i32 [ %818, %815 ], [ %837, %820 ]
  %844 = phi i16 [ %813, %815 ], [ %840, %820 ]
  %845 = icmp ult i16 %844, 256
  br i1 %845, label %846, label %891

846:                                              ; preds = %841
  %847 = trunc i16 %844 to i8
  %848 = load i8*, i8** %17, align 8, !tbaa !39
  %849 = load i64, i64* %15, align 8, !tbaa !44
  %850 = add i64 %849, 1
  store i64 %850, i64* %15, align 8, !tbaa !44
  %851 = getelementptr inbounds i8, i8* %848, i64 %849
  store i8 %847, i8* %851, align 1, !tbaa !14
  %852 = and i32 %843, 511
  %853 = zext i32 %852 to i64
  %854 = getelementptr inbounds i8, i8* %721, i64 %853
  %855 = load i8, i8* %854, align 1, !tbaa !14
  %856 = getelementptr inbounds i16, i16* %722, i64 %853
  %857 = load i16, i16* %856, align 2, !tbaa !66
  %858 = icmp ult i8 %855, 10
  br i1 %858, label %859, label %862

859:                                              ; preds = %846
  %860 = zext i8 %855 to i64
  %861 = add i64 %842, %860
  br label %881

862:                                              ; preds = %846
  %863 = zext i8 %855 to i32
  %864 = lshr i32 %843, 9
  %865 = add i64 %842, 9
  %866 = add nsw i32 %863, -9
  %867 = shl nsw i32 -1, %866
  %868 = xor i32 %867, -1
  %869 = and i32 %864, %868
  %870 = trunc i32 %869 to i16
  %871 = add i16 %857, %870
  %872 = zext i16 %871 to i64
  %873 = getelementptr inbounds i8, i8* %721, i64 %872
  %874 = load i8, i8* %873, align 1, !tbaa !14
  %875 = zext i8 %874 to i64
  %876 = add nuw nsw i64 %875, 4294967287
  %877 = and i64 %876, 4294967295
  %878 = add i64 %865, %877
  %879 = getelementptr inbounds i16, i16* %722, i64 %872
  %880 = load i16, i16* %879, align 2, !tbaa !66
  br label %881

881:                                              ; preds = %862, %859
  %882 = phi i64 [ %861, %859 ], [ %878, %862 ]
  %883 = phi i16 [ %857, %859 ], [ %880, %862 ]
  %884 = icmp ult i16 %883, 256
  br i1 %884, label %885, label %891

885:                                              ; preds = %881
  %886 = trunc i16 %883 to i8
  %887 = load i8*, i8** %17, align 8, !tbaa !39
  %888 = load i64, i64* %15, align 8, !tbaa !44
  %889 = add i64 %888, 1
  store i64 %889, i64* %15, align 8, !tbaa !44
  %890 = getelementptr inbounds i8, i8* %887, i64 %888
  store i8 %886, i8* %890, align 1, !tbaa !14
  br label %1169

891:                                              ; preds = %881, %841
  %892 = phi i64 [ %882, %881 ], [ %842, %841 ]
  %893 = phi i16 [ %883, %881 ], [ %844, %841 ]
  %894 = icmp ne i16 %893, 256
  %895 = icmp ult i16 %893, 286
  %896 = and i1 %894, %895
  br i1 %896, label %897, label %1167

897:                                              ; preds = %891
  %898 = zext i16 %893 to i64
  %899 = add nuw nsw i64 %898, 4294967039
  %900 = and i64 %899, 4294967295
  %901 = getelementptr inbounds [29 x i32], [29 x i32]* @_ZL10LENGTHBASE, i64 0, i64 %900
  %902 = load i32, i32* %901, align 4, !tbaa !9
  %903 = zext i32 %902 to i64
  %904 = add nsw i64 %900, -28
  %905 = icmp ult i64 %904, -20
  br i1 %905, label %973, label %906

906:                                              ; preds = %897
  %907 = getelementptr inbounds [29 x i32], [29 x i32]* @_ZL11LENGTHEXTRA, i64 0, i64 %900
  %908 = load i32, i32* %907, align 4, !tbaa !9
  %909 = lshr i64 %892, 3
  %910 = add nuw nsw i64 %909, 3
  %911 = icmp ult i64 %910, %2
  br i1 %911, label %912, label %932

912:                                              ; preds = %906
  %913 = getelementptr inbounds i8, i8* %1, i64 %909
  %914 = load i8, i8* %913, align 1, !tbaa !14
  %915 = zext i8 %914 to i32
  %916 = add nuw nsw i64 %909, 1
  %917 = getelementptr inbounds i8, i8* %1, i64 %916
  %918 = load i8, i8* %917, align 1, !tbaa !14
  %919 = zext i8 %918 to i32
  %920 = shl nuw nsw i32 %919, 8
  %921 = or i32 %920, %915
  %922 = add nuw nsw i64 %909, 2
  %923 = getelementptr inbounds i8, i8* %1, i64 %922
  %924 = load i8, i8* %923, align 1, !tbaa !14
  %925 = zext i8 %924 to i32
  %926 = shl nuw nsw i32 %925, 16
  %927 = or i32 %921, %926
  %928 = getelementptr inbounds i8, i8* %1, i64 %910
  %929 = load i8, i8* %928, align 1, !tbaa !14
  %930 = zext i8 %929 to i32
  %931 = shl nuw i32 %930, 24
  br label %957

932:                                              ; preds = %906
  %933 = icmp ult i64 %909, %2
  br i1 %933, label %934, label %938

934:                                              ; preds = %932
  %935 = getelementptr inbounds i8, i8* %1, i64 %909
  %936 = load i8, i8* %935, align 1, !tbaa !14
  %937 = zext i8 %936 to i32
  br label %938

938:                                              ; preds = %934, %932
  %939 = phi i32 [ %937, %934 ], [ 0, %932 ]
  %940 = add nuw nsw i64 %909, 1
  %941 = icmp ult i64 %940, %2
  br i1 %941, label %942, label %948

942:                                              ; preds = %938
  %943 = getelementptr inbounds i8, i8* %1, i64 %940
  %944 = load i8, i8* %943, align 1, !tbaa !14
  %945 = zext i8 %944 to i32
  %946 = shl nuw nsw i32 %945, 8
  %947 = or i32 %946, %939
  br label %948

948:                                              ; preds = %942, %938
  %949 = phi i32 [ %947, %942 ], [ %939, %938 ]
  %950 = add nuw nsw i64 %909, 2
  %951 = icmp ult i64 %950, %2
  br i1 %951, label %952, label %961

952:                                              ; preds = %948
  %953 = getelementptr inbounds i8, i8* %1, i64 %950
  %954 = load i8, i8* %953, align 1, !tbaa !14
  %955 = zext i8 %954 to i32
  %956 = shl nuw nsw i32 %955, 16
  br label %957

957:                                              ; preds = %952, %912
  %958 = phi i32 [ %931, %912 ], [ %949, %952 ]
  %959 = phi i32 [ %927, %912 ], [ %956, %952 ]
  %960 = or i32 %959, %958
  br label %961

961:                                              ; preds = %957, %948
  %962 = phi i32 [ %949, %948 ], [ %960, %957 ]
  %963 = trunc i64 %892 to i32
  %964 = and i32 %963, 7
  %965 = lshr i32 %962, %964
  %966 = zext i32 %908 to i64
  %967 = shl nsw i32 -1, %908
  %968 = xor i32 %967, -1
  %969 = and i32 %965, %968
  %970 = add i64 %892, %966
  %971 = zext i32 %969 to i64
  %972 = add nuw nsw i64 %971, %903
  br label %973

973:                                              ; preds = %897, %961
  %974 = phi i64 [ %970, %961 ], [ %892, %897 ]
  %975 = phi i64 [ %972, %961 ], [ %903, %897 ]
  %976 = lshr i64 %974, 3
  %977 = add nuw nsw i64 %976, 4
  %978 = icmp ult i64 %977, %2
  br i1 %978, label %979, label %1011

979:                                              ; preds = %973
  %980 = getelementptr inbounds i8, i8* %1, i64 %976
  %981 = load i8, i8* %980, align 1, !tbaa !14
  %982 = zext i8 %981 to i32
  %983 = add nuw nsw i64 %976, 1
  %984 = getelementptr inbounds i8, i8* %1, i64 %983
  %985 = load i8, i8* %984, align 1, !tbaa !14
  %986 = zext i8 %985 to i32
  %987 = shl nuw nsw i32 %986, 8
  %988 = or i32 %987, %982
  %989 = add nuw nsw i64 %976, 2
  %990 = getelementptr inbounds i8, i8* %1, i64 %989
  %991 = load i8, i8* %990, align 1, !tbaa !14
  %992 = zext i8 %991 to i32
  %993 = shl nuw nsw i32 %992, 16
  %994 = or i32 %988, %993
  %995 = add nuw nsw i64 %976, 3
  %996 = getelementptr inbounds i8, i8* %1, i64 %995
  %997 = load i8, i8* %996, align 1, !tbaa !14
  %998 = zext i8 %997 to i32
  %999 = shl nuw i32 %998, 24
  %1000 = or i32 %994, %999
  %1001 = trunc i64 %974 to i32
  %1002 = and i32 %1001, 7
  %1003 = lshr i32 %1000, %1002
  %1004 = getelementptr inbounds i8, i8* %1, i64 %977
  %1005 = load i8, i8* %1004, align 1, !tbaa !14
  %1006 = zext i8 %1005 to i32
  %1007 = shl nuw i32 %1006, 24
  %1008 = sub nuw nsw i32 8, %1002
  %1009 = shl i32 %1007, %1008
  %1010 = or i32 %1009, %1003
  br label %1052

1011:                                             ; preds = %973
  %1012 = icmp ult i64 %976, %2
  br i1 %1012, label %1013, label %1017

1013:                                             ; preds = %1011
  %1014 = getelementptr inbounds i8, i8* %1, i64 %976
  %1015 = load i8, i8* %1014, align 1, !tbaa !14
  %1016 = zext i8 %1015 to i32
  br label %1017

1017:                                             ; preds = %1013, %1011
  %1018 = phi i32 [ %1016, %1013 ], [ 0, %1011 ]
  %1019 = add nuw nsw i64 %976, 1
  %1020 = icmp ult i64 %1019, %2
  br i1 %1020, label %1021, label %1027

1021:                                             ; preds = %1017
  %1022 = getelementptr inbounds i8, i8* %1, i64 %1019
  %1023 = load i8, i8* %1022, align 1, !tbaa !14
  %1024 = zext i8 %1023 to i32
  %1025 = shl nuw nsw i32 %1024, 8
  %1026 = or i32 %1025, %1018
  br label %1027

1027:                                             ; preds = %1021, %1017
  %1028 = phi i32 [ %1026, %1021 ], [ %1018, %1017 ]
  %1029 = add nuw nsw i64 %976, 2
  %1030 = icmp ult i64 %1029, %2
  br i1 %1030, label %1031, label %1037

1031:                                             ; preds = %1027
  %1032 = getelementptr inbounds i8, i8* %1, i64 %1029
  %1033 = load i8, i8* %1032, align 1, !tbaa !14
  %1034 = zext i8 %1033 to i32
  %1035 = shl nuw nsw i32 %1034, 16
  %1036 = or i32 %1035, %1028
  br label %1037

1037:                                             ; preds = %1031, %1027
  %1038 = phi i32 [ %1036, %1031 ], [ %1028, %1027 ]
  %1039 = add nuw nsw i64 %976, 3
  %1040 = icmp ult i64 %1039, %2
  br i1 %1040, label %1041, label %1047

1041:                                             ; preds = %1037
  %1042 = getelementptr inbounds i8, i8* %1, i64 %1039
  %1043 = load i8, i8* %1042, align 1, !tbaa !14
  %1044 = zext i8 %1043 to i32
  %1045 = shl nuw i32 %1044, 24
  %1046 = or i32 %1045, %1038
  br label %1047

1047:                                             ; preds = %1041, %1037
  %1048 = phi i32 [ %1046, %1041 ], [ %1038, %1037 ]
  %1049 = trunc i64 %974 to i32
  %1050 = and i32 %1049, 7
  %1051 = lshr i32 %1048, %1050
  br label %1052

1052:                                             ; preds = %1047, %979
  %1053 = phi i32 [ %1051, %1047 ], [ %1010, %979 ]
  %1054 = and i32 %1053, 511
  %1055 = zext i32 %1054 to i64
  %1056 = getelementptr inbounds i8, i8* %723, i64 %1055
  %1057 = load i8, i8* %1056, align 1, !tbaa !14
  %1058 = getelementptr inbounds i16, i16* %724, i64 %1055
  %1059 = load i16, i16* %1058, align 2, !tbaa !66
  %1060 = icmp ult i8 %1057, 10
  br i1 %1060, label %1061, label %1066

1061:                                             ; preds = %1052
  %1062 = zext i8 %1057 to i64
  %1063 = zext i8 %1057 to i32
  %1064 = lshr i32 %1053, %1063
  %1065 = add i64 %974, %1062
  br label %1087

1066:                                             ; preds = %1052
  %1067 = zext i8 %1057 to i32
  %1068 = lshr i32 %1053, 9
  %1069 = add i64 %974, 9
  %1070 = add nsw i32 %1067, -9
  %1071 = shl nsw i32 -1, %1070
  %1072 = xor i32 %1071, -1
  %1073 = and i32 %1068, %1072
  %1074 = trunc i32 %1073 to i16
  %1075 = add i16 %1059, %1074
  %1076 = zext i16 %1075 to i64
  %1077 = getelementptr inbounds i8, i8* %723, i64 %1076
  %1078 = load i8, i8* %1077, align 1, !tbaa !14
  %1079 = zext i8 %1078 to i64
  %1080 = add nuw nsw i64 %1079, 4294967287
  %1081 = and i64 %1080, 4294967295
  %1082 = trunc i64 %1080 to i32
  %1083 = lshr i32 %1068, %1082
  %1084 = add i64 %1069, %1081
  %1085 = getelementptr inbounds i16, i16* %724, i64 %1076
  %1086 = load i16, i16* %1085, align 2, !tbaa !66
  br label %1087

1087:                                             ; preds = %1066, %1061
  %1088 = phi i64 [ %1065, %1061 ], [ %1084, %1066 ]
  %1089 = phi i32 [ %1064, %1061 ], [ %1083, %1066 ]
  %1090 = phi i16 [ %1059, %1061 ], [ %1086, %1066 ]
  %1091 = icmp ugt i16 %1090, 29
  br i1 %1091, label %1092, label %1095

1092:                                             ; preds = %1087
  %1093 = icmp ult i16 %1090, 32
  %1094 = select i1 %1093, i32 18, i32 16
  br label %1198

1095:                                             ; preds = %1087
  %1096 = zext i16 %1090 to i64
  %1097 = getelementptr inbounds [30 x i32], [30 x i32]* @_ZL12DISTANCEBASE, i64 0, i64 %1096
  %1098 = load i32, i32* %1097, align 4, !tbaa !9
  %1099 = icmp ult i16 %1090, 4
  br i1 %1099, label %1109, label %1100

1100:                                             ; preds = %1095
  %1101 = getelementptr inbounds [30 x i32], [30 x i32]* @_ZL13DISTANCEEXTRA, i64 0, i64 %1096
  %1102 = load i32, i32* %1101, align 4, !tbaa !9
  %1103 = zext i32 %1102 to i64
  %1104 = shl nsw i32 -1, %1102
  %1105 = xor i32 %1104, -1
  %1106 = and i32 %1089, %1105
  %1107 = add i64 %1088, %1103
  %1108 = add i32 %1106, %1098
  br label %1109

1109:                                             ; preds = %1100, %1095
  %1110 = phi i64 [ %1088, %1095 ], [ %1107, %1100 ]
  %1111 = phi i32 [ %1098, %1095 ], [ %1108, %1100 ]
  %1112 = load i64, i64* %15, align 8, !tbaa !44
  %1113 = zext i32 %1111 to i64
  %1114 = icmp ult i64 %1112, %1113
  br i1 %1114, label %1198, label %1115

1115:                                             ; preds = %1109
  %1116 = sub i64 %1112, %1113
  %1117 = add i64 %1112, %975
  store i64 %1117, i64* %15, align 8, !tbaa !44
  %1118 = icmp ugt i64 %975, %1113
  %1119 = load i8*, i8** %17, align 8, !tbaa !39
  br i1 %1118, label %1120, label %1162

1120:                                             ; preds = %1115
  %1121 = icmp eq i32 %1111, 0
  br i1 %1121, label %1125, label %1122

1122:                                             ; preds = %1120
  %1123 = getelementptr inbounds i8, i8* %1119, i64 %1116
  %1124 = getelementptr inbounds i8, i8* %1119, i64 %1112
  tail call void @llvm.memcpy.p0i8.p0i8.i64(i8* align 1 %1124, i8* align 1 %1123, i64 %1113, i1 false) #25, !tbaa !14, !alias.scope !69
  br label %1125

1125:                                             ; preds = %1122, %1120
  %1126 = add i64 %1112, %1113
  %1127 = sub nsw i64 %975, %1113
  %1128 = add nuw nsw i64 %1113, 1
  %1129 = and i64 %1127, 1
  %1130 = icmp eq i64 %1129, 0
  br i1 %1130, label %1139, label %1131

1131:                                             ; preds = %1125
  %1132 = load i8*, i8** %17, align 8, !tbaa !39
  %1133 = add i64 %1116, 1
  %1134 = getelementptr inbounds i8, i8* %1132, i64 %1116
  %1135 = load i8, i8* %1134, align 1, !tbaa !14
  %1136 = add i64 %1126, 1
  %1137 = getelementptr inbounds i8, i8* %1132, i64 %1126
  store i8 %1135, i8* %1137, align 1, !tbaa !14
  %1138 = add nuw nsw i64 %1113, 1
  br label %1139

1139:                                             ; preds = %1131, %1125
  %1140 = phi i64 [ %1113, %1125 ], [ %1138, %1131 ]
  %1141 = phi i64 [ %1116, %1125 ], [ %1133, %1131 ]
  %1142 = phi i64 [ %1126, %1125 ], [ %1136, %1131 ]
  %1143 = icmp eq i64 %975, %1128
  br i1 %1143, label %1169, label %1144

1144:                                             ; preds = %1139, %1144
  %1145 = phi i64 [ %1160, %1144 ], [ %1140, %1139 ]
  %1146 = phi i64 [ %1155, %1144 ], [ %1141, %1139 ]
  %1147 = phi i64 [ %1158, %1144 ], [ %1142, %1139 ]
  %1148 = load i8*, i8** %17, align 8, !tbaa !39
  %1149 = add i64 %1146, 1
  %1150 = getelementptr inbounds i8, i8* %1148, i64 %1146
  %1151 = load i8, i8* %1150, align 1, !tbaa !14
  %1152 = add i64 %1147, 1
  %1153 = getelementptr inbounds i8, i8* %1148, i64 %1147
  store i8 %1151, i8* %1153, align 1, !tbaa !14
  %1154 = load i8*, i8** %17, align 8, !tbaa !39
  %1155 = add i64 %1146, 2
  %1156 = getelementptr inbounds i8, i8* %1154, i64 %1149
  %1157 = load i8, i8* %1156, align 1, !tbaa !14
  %1158 = add i64 %1147, 2
  %1159 = getelementptr inbounds i8, i8* %1154, i64 %1152
  store i8 %1157, i8* %1159, align 1, !tbaa !14
  %1160 = add nuw nsw i64 %1145, 2
  %1161 = icmp eq i64 %1160, %975
  br i1 %1161, label %1169, label %1144

1162:                                             ; preds = %1115
  %1163 = icmp eq i64 %975, 0
  br i1 %1163, label %1169, label %1164

1164:                                             ; preds = %1162
  %1165 = getelementptr inbounds i8, i8* %1119, i64 %1116
  %1166 = getelementptr inbounds i8, i8* %1119, i64 %1112
  tail call void @llvm.memcpy.p0i8.p0i8.i64(i8* align 1 %1166, i8* align 1 %1165, i64 %975, i1 false) #25, !tbaa !14, !alias.scope !73
  br label %1169

1167:                                             ; preds = %891
  %1168 = icmp eq i16 %893, 256
  br i1 %1168, label %1169, label %1198

1169:                                             ; preds = %1139, %1144, %1167, %1164, %1162, %885
  %1170 = phi i64 [ %882, %885 ], [ %1110, %1162 ], [ %1110, %1164 ], [ %892, %1167 ], [ %1110, %1144 ], [ %1110, %1139 ]
  %1171 = phi i1 [ true, %885 ], [ true, %1162 ], [ true, %1164 ], [ false, %1167 ], [ true, %1144 ], [ true, %1139 ]
  %1172 = load i64, i64* %16, align 8, !tbaa !45
  %1173 = load i64, i64* %15, align 8, !tbaa !44
  %1174 = sub i64 %1172, %1173
  %1175 = icmp ult i64 %1174, 260
  br i1 %1175, label %1176, label %1186

1176:                                             ; preds = %1169
  %1177 = add i64 %1173, 260
  %1178 = icmp ult i64 %1172, %1177
  br i1 %1178, label %1179, label %1186

1179:                                             ; preds = %1176
  %1180 = lshr i64 %1172, 1
  %1181 = add i64 %1177, %1180
  %1182 = load i8*, i8** %17, align 8, !tbaa !39
  %1183 = tail call i8* @realloc(i8* noundef %1182, i64 noundef %1181) #25
  %1184 = icmp eq i8* %1183, null
  br i1 %1184, label %1198, label %1185

1185:                                             ; preds = %1179
  store i64 %1181, i64* %16, align 8, !tbaa !45
  store i8* %1183, i8** %17, align 8, !tbaa !39
  br label %1186

1186:                                             ; preds = %1185, %1176, %1169
  %1187 = icmp ugt i64 %1170, %9
  br i1 %1187, label %1198, label %1188

1188:                                             ; preds = %1186
  br i1 %725, label %1195, label %1189

1189:                                             ; preds = %1188
  %1190 = load i64, i64* %15, align 8, !tbaa !44
  %1191 = icmp ugt i64 %1190, %140
  %1192 = xor i1 %1171, true
  %1193 = or i1 %1191, %1192
  br i1 %1193, label %1196, label %1194

1194:                                             ; preds = %1189, %1195
  br label %728

1195:                                             ; preds = %1188
  br i1 %1171, label %1194, label %1198

1196:                                             ; preds = %1189
  %1197 = select i1 %1191, i32 109, i32 0
  br label %1198

1198:                                             ; preds = %1195, %1186, %1179, %1167, %1109, %1196, %713, %1092
  %1199 = phi i64 [ %716, %713 ], [ %1088, %1092 ], [ %1170, %1196 ], [ %1170, %1195 ], [ %1170, %1186 ], [ %1170, %1179 ], [ %892, %1167 ], [ %1110, %1109 ]
  %1200 = phi i8* [ %714, %713 ], [ %727, %1092 ], [ %727, %1196 ], [ %727, %1109 ], [ %727, %1167 ], [ %727, %1179 ], [ %727, %1186 ], [ %727, %1195 ]
  %1201 = phi i8* [ %715, %713 ], [ %723, %1092 ], [ %723, %1196 ], [ %723, %1109 ], [ %723, %1167 ], [ %723, %1179 ], [ %723, %1186 ], [ %723, %1195 ]
  %1202 = phi i8* [ %719, %713 ], [ %726, %1092 ], [ %726, %1196 ], [ %726, %1109 ], [ %726, %1167 ], [ %726, %1179 ], [ %726, %1186 ], [ %726, %1195 ]
  %1203 = phi i8* [ %718, %713 ], [ %721, %1092 ], [ %721, %1196 ], [ %721, %1109 ], [ %721, %1167 ], [ %721, %1179 ], [ %721, %1186 ], [ %721, %1195 ]
  %1204 = phi i32 [ %717, %713 ], [ %1094, %1092 ], [ %1197, %1196 ], [ 0, %1195 ], [ 51, %1186 ], [ 83, %1179 ], [ 16, %1167 ], [ 52, %1109 ]
  %1205 = load i8*, i8** %47, align 8, !tbaa !68
  tail call void @free(i8* noundef %1205) #25
  %1206 = load i8*, i8** %34, align 8, !tbaa !53
  tail call void @free(i8* noundef %1206) #25
  tail call void @free(i8* noundef %1203) #25
  tail call void @free(i8* noundef %1202) #25
  %1207 = load i8*, i8** %48, align 8, !tbaa !68
  tail call void @free(i8* noundef %1207) #25
  %1208 = load i8*, i8** %38, align 8, !tbaa !53
  tail call void @free(i8* noundef %1208) #25
  tail call void @free(i8* noundef %1201) #25
  tail call void @free(i8* noundef %1200) #25
  call void @llvm.lifetime.end.p0i8(i64 40, i8* nonnull %20) #25
  call void @llvm.lifetime.end.p0i8(i64 40, i8* nonnull %19) #25
  %1209 = icmp eq i32 %1204, 0
  br i1 %1209, label %1210, label %1219

1210:                                             ; preds = %136, %1198
  %1211 = phi i64 [ %138, %136 ], [ %1199, %1198 ]
  %1212 = load i64, i64* %18, align 8, !tbaa !52
  %1213 = icmp eq i64 %1212, 0
  br i1 %1213, label %1217, label %1214

1214:                                             ; preds = %1210
  %1215 = load i64, i64* %15, align 8, !tbaa !44
  %1216 = icmp ugt i64 %1215, %1212
  br i1 %1216, label %1219, label %1217

1217:                                             ; preds = %1210, %1214
  %1218 = icmp eq i32 %77, 0
  br i1 %1218, label %49, label %1219

1219:                                             ; preds = %72, %49, %1198, %81, %98, %124, %117, %1214, %1217, %151, %4
  %1220 = phi i32 [ 105, %4 ], [ 83, %151 ], [ 52, %49 ], [ 20, %72 ], [ 109, %1214 ], [ 52, %81 ], [ 21, %98 ], [ 23, %124 ], [ 83, %117 ], [ %1204, %1198 ], [ 0, %1217 ]
  ret i32 %1220
}

; Function Attrs: nofree nosync nounwind readnone speculatable willreturn
declare { i64, i1 } @llvm.umul.with.overflow.i64(i64, i64) #9

; Function Attrs: inaccessiblemem_or_argmemonly mustprogress nounwind willreturn
declare dso_local noalias noundef i8* @realloc(i8* nocapture noundef, i64 noundef) local_unnamed_addr #7

; Function Attrs: nounwind uwtable
define internal fastcc noundef i32 @_ZL23generateFixedLitLenTreeP11HuffmanTree(%struct.HuffmanTree* nocapture noundef %0) unnamed_addr #3 {
  %2 = tail call noalias dereferenceable_or_null(1152) i8* @malloc(i64 noundef 1152) #25
  %3 = bitcast i8* %2 to i32*
  %4 = icmp eq i8* %2, null
  br i1 %4, label %168, label %5

5:                                                ; preds = %1
  %6 = bitcast i8* %2 to <4 x i32>*
  store <4 x i32> <i32 8, i32 8, i32 8, i32 8>, <4 x i32>* %6, align 4, !tbaa !9
  %7 = getelementptr inbounds i32, i32* %3, i64 4
  %8 = bitcast i32* %7 to <4 x i32>*
  store <4 x i32> <i32 8, i32 8, i32 8, i32 8>, <4 x i32>* %8, align 4, !tbaa !9
  %9 = getelementptr inbounds i32, i32* %3, i64 8
  %10 = bitcast i32* %9 to <4 x i32>*
  store <4 x i32> <i32 8, i32 8, i32 8, i32 8>, <4 x i32>* %10, align 4, !tbaa !9
  %11 = getelementptr inbounds i32, i32* %3, i64 12
  %12 = bitcast i32* %11 to <4 x i32>*
  store <4 x i32> <i32 8, i32 8, i32 8, i32 8>, <4 x i32>* %12, align 4, !tbaa !9
  %13 = getelementptr inbounds i32, i32* %3, i64 16
  %14 = bitcast i32* %13 to <4 x i32>*
  store <4 x i32> <i32 8, i32 8, i32 8, i32 8>, <4 x i32>* %14, align 4, !tbaa !9
  %15 = getelementptr inbounds i32, i32* %3, i64 20
  %16 = bitcast i32* %15 to <4 x i32>*
  store <4 x i32> <i32 8, i32 8, i32 8, i32 8>, <4 x i32>* %16, align 4, !tbaa !9
  %17 = getelementptr inbounds i32, i32* %3, i64 24
  %18 = bitcast i32* %17 to <4 x i32>*
  store <4 x i32> <i32 8, i32 8, i32 8, i32 8>, <4 x i32>* %18, align 4, !tbaa !9
  %19 = getelementptr inbounds i32, i32* %3, i64 28
  %20 = bitcast i32* %19 to <4 x i32>*
  store <4 x i32> <i32 8, i32 8, i32 8, i32 8>, <4 x i32>* %20, align 4, !tbaa !9
  %21 = getelementptr inbounds i32, i32* %3, i64 32
  %22 = bitcast i32* %21 to <4 x i32>*
  store <4 x i32> <i32 8, i32 8, i32 8, i32 8>, <4 x i32>* %22, align 4, !tbaa !9
  %23 = getelementptr inbounds i32, i32* %3, i64 36
  %24 = bitcast i32* %23 to <4 x i32>*
  store <4 x i32> <i32 8, i32 8, i32 8, i32 8>, <4 x i32>* %24, align 4, !tbaa !9
  %25 = getelementptr inbounds i32, i32* %3, i64 40
  %26 = bitcast i32* %25 to <4 x i32>*
  store <4 x i32> <i32 8, i32 8, i32 8, i32 8>, <4 x i32>* %26, align 4, !tbaa !9
  %27 = getelementptr inbounds i32, i32* %3, i64 44
  %28 = bitcast i32* %27 to <4 x i32>*
  store <4 x i32> <i32 8, i32 8, i32 8, i32 8>, <4 x i32>* %28, align 4, !tbaa !9
  %29 = getelementptr inbounds i32, i32* %3, i64 48
  %30 = bitcast i32* %29 to <4 x i32>*
  store <4 x i32> <i32 8, i32 8, i32 8, i32 8>, <4 x i32>* %30, align 4, !tbaa !9
  %31 = getelementptr inbounds i32, i32* %3, i64 52
  %32 = bitcast i32* %31 to <4 x i32>*
  store <4 x i32> <i32 8, i32 8, i32 8, i32 8>, <4 x i32>* %32, align 4, !tbaa !9
  %33 = getelementptr inbounds i32, i32* %3, i64 56
  %34 = bitcast i32* %33 to <4 x i32>*
  store <4 x i32> <i32 8, i32 8, i32 8, i32 8>, <4 x i32>* %34, align 4, !tbaa !9
  %35 = getelementptr inbounds i32, i32* %3, i64 60
  %36 = bitcast i32* %35 to <4 x i32>*
  store <4 x i32> <i32 8, i32 8, i32 8, i32 8>, <4 x i32>* %36, align 4, !tbaa !9
  %37 = getelementptr inbounds i32, i32* %3, i64 64
  %38 = bitcast i32* %37 to <4 x i32>*
  store <4 x i32> <i32 8, i32 8, i32 8, i32 8>, <4 x i32>* %38, align 4, !tbaa !9
  %39 = getelementptr inbounds i32, i32* %3, i64 68
  %40 = bitcast i32* %39 to <4 x i32>*
  store <4 x i32> <i32 8, i32 8, i32 8, i32 8>, <4 x i32>* %40, align 4, !tbaa !9
  %41 = getelementptr inbounds i32, i32* %3, i64 72
  %42 = bitcast i32* %41 to <4 x i32>*
  store <4 x i32> <i32 8, i32 8, i32 8, i32 8>, <4 x i32>* %42, align 4, !tbaa !9
  %43 = getelementptr inbounds i32, i32* %3, i64 76
  %44 = bitcast i32* %43 to <4 x i32>*
  store <4 x i32> <i32 8, i32 8, i32 8, i32 8>, <4 x i32>* %44, align 4, !tbaa !9
  %45 = getelementptr inbounds i32, i32* %3, i64 80
  %46 = bitcast i32* %45 to <4 x i32>*
  store <4 x i32> <i32 8, i32 8, i32 8, i32 8>, <4 x i32>* %46, align 4, !tbaa !9
  %47 = getelementptr inbounds i32, i32* %3, i64 84
  %48 = bitcast i32* %47 to <4 x i32>*
  store <4 x i32> <i32 8, i32 8, i32 8, i32 8>, <4 x i32>* %48, align 4, !tbaa !9
  %49 = getelementptr inbounds i32, i32* %3, i64 88
  %50 = bitcast i32* %49 to <4 x i32>*
  store <4 x i32> <i32 8, i32 8, i32 8, i32 8>, <4 x i32>* %50, align 4, !tbaa !9
  %51 = getelementptr inbounds i32, i32* %3, i64 92
  %52 = bitcast i32* %51 to <4 x i32>*
  store <4 x i32> <i32 8, i32 8, i32 8, i32 8>, <4 x i32>* %52, align 4, !tbaa !9
  %53 = getelementptr inbounds i32, i32* %3, i64 96
  %54 = bitcast i32* %53 to <4 x i32>*
  store <4 x i32> <i32 8, i32 8, i32 8, i32 8>, <4 x i32>* %54, align 4, !tbaa !9
  %55 = getelementptr inbounds i32, i32* %3, i64 100
  %56 = bitcast i32* %55 to <4 x i32>*
  store <4 x i32> <i32 8, i32 8, i32 8, i32 8>, <4 x i32>* %56, align 4, !tbaa !9
  %57 = getelementptr inbounds i32, i32* %3, i64 104
  %58 = bitcast i32* %57 to <4 x i32>*
  store <4 x i32> <i32 8, i32 8, i32 8, i32 8>, <4 x i32>* %58, align 4, !tbaa !9
  %59 = getelementptr inbounds i32, i32* %3, i64 108
  %60 = bitcast i32* %59 to <4 x i32>*
  store <4 x i32> <i32 8, i32 8, i32 8, i32 8>, <4 x i32>* %60, align 4, !tbaa !9
  %61 = getelementptr inbounds i32, i32* %3, i64 112
  %62 = bitcast i32* %61 to <4 x i32>*
  store <4 x i32> <i32 8, i32 8, i32 8, i32 8>, <4 x i32>* %62, align 4, !tbaa !9
  %63 = getelementptr inbounds i32, i32* %3, i64 116
  %64 = bitcast i32* %63 to <4 x i32>*
  store <4 x i32> <i32 8, i32 8, i32 8, i32 8>, <4 x i32>* %64, align 4, !tbaa !9
  %65 = getelementptr inbounds i32, i32* %3, i64 120
  %66 = bitcast i32* %65 to <4 x i32>*
  store <4 x i32> <i32 8, i32 8, i32 8, i32 8>, <4 x i32>* %66, align 4, !tbaa !9
  %67 = getelementptr inbounds i32, i32* %3, i64 124
  %68 = bitcast i32* %67 to <4 x i32>*
  store <4 x i32> <i32 8, i32 8, i32 8, i32 8>, <4 x i32>* %68, align 4, !tbaa !9
  %69 = getelementptr inbounds i32, i32* %3, i64 128
  %70 = bitcast i32* %69 to <4 x i32>*
  store <4 x i32> <i32 8, i32 8, i32 8, i32 8>, <4 x i32>* %70, align 4, !tbaa !9
  %71 = getelementptr inbounds i32, i32* %3, i64 132
  %72 = bitcast i32* %71 to <4 x i32>*
  store <4 x i32> <i32 8, i32 8, i32 8, i32 8>, <4 x i32>* %72, align 4, !tbaa !9
  %73 = getelementptr inbounds i32, i32* %3, i64 136
  %74 = bitcast i32* %73 to <4 x i32>*
  store <4 x i32> <i32 8, i32 8, i32 8, i32 8>, <4 x i32>* %74, align 4, !tbaa !9
  %75 = getelementptr inbounds i32, i32* %3, i64 140
  %76 = bitcast i32* %75 to <4 x i32>*
  store <4 x i32> <i32 8, i32 8, i32 8, i32 8>, <4 x i32>* %76, align 4, !tbaa !9
  %77 = getelementptr inbounds i32, i32* %3, i64 144
  %78 = bitcast i32* %77 to <4 x i32>*
  store <4 x i32> <i32 9, i32 9, i32 9, i32 9>, <4 x i32>* %78, align 4, !tbaa !9
  %79 = getelementptr inbounds i32, i32* %3, i64 148
  %80 = bitcast i32* %79 to <4 x i32>*
  store <4 x i32> <i32 9, i32 9, i32 9, i32 9>, <4 x i32>* %80, align 4, !tbaa !9
  %81 = getelementptr inbounds i32, i32* %3, i64 152
  %82 = bitcast i32* %81 to <4 x i32>*
  store <4 x i32> <i32 9, i32 9, i32 9, i32 9>, <4 x i32>* %82, align 4, !tbaa !9
  %83 = getelementptr inbounds i32, i32* %3, i64 156
  %84 = bitcast i32* %83 to <4 x i32>*
  store <4 x i32> <i32 9, i32 9, i32 9, i32 9>, <4 x i32>* %84, align 4, !tbaa !9
  %85 = getelementptr inbounds i32, i32* %3, i64 160
  %86 = bitcast i32* %85 to <4 x i32>*
  store <4 x i32> <i32 9, i32 9, i32 9, i32 9>, <4 x i32>* %86, align 4, !tbaa !9
  %87 = getelementptr inbounds i32, i32* %3, i64 164
  %88 = bitcast i32* %87 to <4 x i32>*
  store <4 x i32> <i32 9, i32 9, i32 9, i32 9>, <4 x i32>* %88, align 4, !tbaa !9
  %89 = getelementptr inbounds i32, i32* %3, i64 168
  %90 = bitcast i32* %89 to <4 x i32>*
  store <4 x i32> <i32 9, i32 9, i32 9, i32 9>, <4 x i32>* %90, align 4, !tbaa !9
  %91 = getelementptr inbounds i32, i32* %3, i64 172
  %92 = bitcast i32* %91 to <4 x i32>*
  store <4 x i32> <i32 9, i32 9, i32 9, i32 9>, <4 x i32>* %92, align 4, !tbaa !9
  %93 = getelementptr inbounds i32, i32* %3, i64 176
  %94 = bitcast i32* %93 to <4 x i32>*
  store <4 x i32> <i32 9, i32 9, i32 9, i32 9>, <4 x i32>* %94, align 4, !tbaa !9
  %95 = getelementptr inbounds i32, i32* %3, i64 180
  %96 = bitcast i32* %95 to <4 x i32>*
  store <4 x i32> <i32 9, i32 9, i32 9, i32 9>, <4 x i32>* %96, align 4, !tbaa !9
  %97 = getelementptr inbounds i32, i32* %3, i64 184
  %98 = bitcast i32* %97 to <4 x i32>*
  store <4 x i32> <i32 9, i32 9, i32 9, i32 9>, <4 x i32>* %98, align 4, !tbaa !9
  %99 = getelementptr inbounds i32, i32* %3, i64 188
  %100 = bitcast i32* %99 to <4 x i32>*
  store <4 x i32> <i32 9, i32 9, i32 9, i32 9>, <4 x i32>* %100, align 4, !tbaa !9
  %101 = getelementptr inbounds i32, i32* %3, i64 192
  %102 = bitcast i32* %101 to <4 x i32>*
  store <4 x i32> <i32 9, i32 9, i32 9, i32 9>, <4 x i32>* %102, align 4, !tbaa !9
  %103 = getelementptr inbounds i32, i32* %3, i64 196
  %104 = bitcast i32* %103 to <4 x i32>*
  store <4 x i32> <i32 9, i32 9, i32 9, i32 9>, <4 x i32>* %104, align 4, !tbaa !9
  %105 = getelementptr inbounds i32, i32* %3, i64 200
  %106 = bitcast i32* %105 to <4 x i32>*
  store <4 x i32> <i32 9, i32 9, i32 9, i32 9>, <4 x i32>* %106, align 4, !tbaa !9
  %107 = getelementptr inbounds i32, i32* %3, i64 204
  %108 = bitcast i32* %107 to <4 x i32>*
  store <4 x i32> <i32 9, i32 9, i32 9, i32 9>, <4 x i32>* %108, align 4, !tbaa !9
  %109 = getelementptr inbounds i32, i32* %3, i64 208
  %110 = bitcast i32* %109 to <4 x i32>*
  store <4 x i32> <i32 9, i32 9, i32 9, i32 9>, <4 x i32>* %110, align 4, !tbaa !9
  %111 = getelementptr inbounds i32, i32* %3, i64 212
  %112 = bitcast i32* %111 to <4 x i32>*
  store <4 x i32> <i32 9, i32 9, i32 9, i32 9>, <4 x i32>* %112, align 4, !tbaa !9
  %113 = getelementptr inbounds i32, i32* %3, i64 216
  %114 = bitcast i32* %113 to <4 x i32>*
  store <4 x i32> <i32 9, i32 9, i32 9, i32 9>, <4 x i32>* %114, align 4, !tbaa !9
  %115 = getelementptr inbounds i32, i32* %3, i64 220
  %116 = bitcast i32* %115 to <4 x i32>*
  store <4 x i32> <i32 9, i32 9, i32 9, i32 9>, <4 x i32>* %116, align 4, !tbaa !9
  %117 = getelementptr inbounds i32, i32* %3, i64 224
  %118 = bitcast i32* %117 to <4 x i32>*
  store <4 x i32> <i32 9, i32 9, i32 9, i32 9>, <4 x i32>* %118, align 4, !tbaa !9
  %119 = getelementptr inbounds i32, i32* %3, i64 228
  %120 = bitcast i32* %119 to <4 x i32>*
  store <4 x i32> <i32 9, i32 9, i32 9, i32 9>, <4 x i32>* %120, align 4, !tbaa !9
  %121 = getelementptr inbounds i32, i32* %3, i64 232
  %122 = bitcast i32* %121 to <4 x i32>*
  store <4 x i32> <i32 9, i32 9, i32 9, i32 9>, <4 x i32>* %122, align 4, !tbaa !9
  %123 = getelementptr inbounds i32, i32* %3, i64 236
  %124 = bitcast i32* %123 to <4 x i32>*
  store <4 x i32> <i32 9, i32 9, i32 9, i32 9>, <4 x i32>* %124, align 4, !tbaa !9
  %125 = getelementptr inbounds i32, i32* %3, i64 240
  %126 = bitcast i32* %125 to <4 x i32>*
  store <4 x i32> <i32 9, i32 9, i32 9, i32 9>, <4 x i32>* %126, align 4, !tbaa !9
  %127 = getelementptr inbounds i32, i32* %3, i64 244
  %128 = bitcast i32* %127 to <4 x i32>*
  store <4 x i32> <i32 9, i32 9, i32 9, i32 9>, <4 x i32>* %128, align 4, !tbaa !9
  %129 = getelementptr inbounds i32, i32* %3, i64 248
  %130 = bitcast i32* %129 to <4 x i32>*
  store <4 x i32> <i32 9, i32 9, i32 9, i32 9>, <4 x i32>* %130, align 4, !tbaa !9
  %131 = getelementptr inbounds i32, i32* %3, i64 252
  %132 = bitcast i32* %131 to <4 x i32>*
  store <4 x i32> <i32 9, i32 9, i32 9, i32 9>, <4 x i32>* %132, align 4, !tbaa !9
  %133 = getelementptr inbounds i32, i32* %3, i64 256
  %134 = bitcast i32* %133 to <4 x i32>*
  store <4 x i32> <i32 7, i32 7, i32 7, i32 7>, <4 x i32>* %134, align 4, !tbaa !9
  %135 = getelementptr inbounds i32, i32* %3, i64 260
  %136 = bitcast i32* %135 to <4 x i32>*
  store <4 x i32> <i32 7, i32 7, i32 7, i32 7>, <4 x i32>* %136, align 4, !tbaa !9
  %137 = getelementptr inbounds i32, i32* %3, i64 264
  %138 = bitcast i32* %137 to <4 x i32>*
  store <4 x i32> <i32 7, i32 7, i32 7, i32 7>, <4 x i32>* %138, align 4, !tbaa !9
  %139 = getelementptr inbounds i32, i32* %3, i64 268
  %140 = bitcast i32* %139 to <4 x i32>*
  store <4 x i32> <i32 7, i32 7, i32 7, i32 7>, <4 x i32>* %140, align 4, !tbaa !9
  %141 = getelementptr inbounds i32, i32* %3, i64 272
  %142 = bitcast i32* %141 to <4 x i32>*
  store <4 x i32> <i32 7, i32 7, i32 7, i32 7>, <4 x i32>* %142, align 4, !tbaa !9
  %143 = getelementptr inbounds i32, i32* %3, i64 276
  %144 = bitcast i32* %143 to <4 x i32>*
  store <4 x i32> <i32 7, i32 7, i32 7, i32 7>, <4 x i32>* %144, align 4, !tbaa !9
  %145 = getelementptr inbounds i32, i32* %3, i64 280
  %146 = bitcast i32* %145 to <4 x i32>*
  store <4 x i32> <i32 8, i32 8, i32 8, i32 8>, <4 x i32>* %146, align 4, !tbaa !9
  %147 = getelementptr inbounds i32, i32* %3, i64 284
  %148 = bitcast i32* %147 to <4 x i32>*
  store <4 x i32> <i32 8, i32 8, i32 8, i32 8>, <4 x i32>* %148, align 4, !tbaa !9
  %149 = tail call noalias dereferenceable_or_null(1152) i8* @malloc(i64 noundef 1152) #25
  %150 = getelementptr inbounds %struct.HuffmanTree, %struct.HuffmanTree* %0, i64 0, i32 1
  %151 = bitcast i32** %150 to i8**
  store i8* %149, i8** %151, align 8, !tbaa !53
  %152 = icmp eq i8* %149, null
  %153 = bitcast i8* %149 to i32*
  br i1 %152, label %166, label %154

154:                                              ; preds = %5, %154
  %155 = phi i64 [ %160, %154 ], [ 0, %5 ]
  %156 = getelementptr inbounds i32, i32* %3, i64 %155
  %157 = load i32, i32* %156, align 4, !tbaa !9
  %158 = getelementptr inbounds i32, i32* %153, i64 %155
  store i32 %157, i32* %158, align 4, !tbaa !9
  %159 = add nuw nsw i64 %155, 1
  %160 = and i64 %159, 4294967295
  %161 = icmp eq i64 %160, 288
  br i1 %161, label %162, label %154

162:                                              ; preds = %154
  %163 = getelementptr inbounds %struct.HuffmanTree, %struct.HuffmanTree* %0, i64 0, i32 3
  store i32 288, i32* %163, align 4, !tbaa !55
  %164 = getelementptr inbounds %struct.HuffmanTree, %struct.HuffmanTree* %0, i64 0, i32 2
  store i32 15, i32* %164, align 8, !tbaa !56
  %165 = tail call fastcc noundef i32 @_ZL28HuffmanTree_makeFromLengths2P11HuffmanTree(%struct.HuffmanTree* noundef nonnull %0) #25
  br label %166

166:                                              ; preds = %5, %162
  %167 = phi i32 [ %165, %162 ], [ 83, %5 ]
  tail call void @free(i8* noundef nonnull %2) #25
  br label %168

168:                                              ; preds = %1, %166
  %169 = phi i32 [ %167, %166 ], [ 83, %1 ]
  ret i32 %169
}

; Function Attrs: nounwind uwtable
define internal fastcc noundef i32 @_ZL28HuffmanTree_makeFromLengths2P11HuffmanTree(%struct.HuffmanTree* nocapture noundef %0) unnamed_addr #3 {
  %2 = getelementptr inbounds %struct.HuffmanTree, %struct.HuffmanTree* %0, i64 0, i32 3
  %3 = load i32, i32* %2, align 4, !tbaa !55
  %4 = zext i32 %3 to i64
  %5 = shl nuw nsw i64 %4, 2
  %6 = tail call noalias i8* @malloc(i64 noundef %5) #25
  %7 = getelementptr inbounds %struct.HuffmanTree, %struct.HuffmanTree* %0, i64 0, i32 0
  %8 = bitcast %struct.HuffmanTree* %0 to i8**
  store i8* %6, i8** %8, align 8, !tbaa !68
  %9 = getelementptr inbounds %struct.HuffmanTree, %struct.HuffmanTree* %0, i64 0, i32 2
  %10 = load i32, i32* %9, align 8, !tbaa !56
  %11 = add i32 %10, 1
  %12 = zext i32 %11 to i64
  %13 = shl nuw nsw i64 %12, 2
  %14 = tail call noalias i8* @malloc(i64 noundef %13) #25
  %15 = bitcast i8* %14 to i32*
  %16 = tail call noalias i8* @malloc(i64 noundef %13) #25
  %17 = bitcast i8* %16 to i32*
  %18 = bitcast i8* %6 to i32*
  %19 = icmp ne i8* %6, null
  %20 = icmp ne i8* %14, null
  %21 = and i1 %20, %19
  %22 = icmp ne i8* %16, null
  %23 = and i1 %22, %21
  br i1 %23, label %24, label %420

24:                                               ; preds = %1
  %25 = icmp eq i32 %11, 0
  br i1 %25, label %30, label %26

26:                                               ; preds = %24
  %27 = zext i32 %10 to i64
  %28 = shl nuw nsw i64 %27, 2
  %29 = add nuw nsw i64 %28, 4
  call void @llvm.memset.p0i8.i64(i8* noundef nonnull align 4 %16, i8 0, i64 %29, i1 false), !tbaa !9
  call void @llvm.memset.p0i8.i64(i8* noundef nonnull align 4 %14, i8 0, i64 %29, i1 false), !tbaa !9
  br label %30

30:                                               ; preds = %26, %24
  %31 = icmp eq i32 %3, 0
  br i1 %31, label %55, label %32

32:                                               ; preds = %30
  %33 = getelementptr inbounds %struct.HuffmanTree, %struct.HuffmanTree* %0, i64 0, i32 1
  %34 = load i32*, i32** %33, align 8, !tbaa !53
  %35 = add nsw i64 %4, -1
  %36 = and i64 %4, 3
  %37 = icmp ult i64 %35, 3
  br i1 %37, label %40, label %38

38:                                               ; preds = %32
  %39 = and i64 %4, 4294967292
  br label %59

40:                                               ; preds = %59, %32
  %41 = phi i64 [ 0, %32 ], [ %89, %59 ]
  %42 = icmp eq i64 %36, 0
  br i1 %42, label %55, label %43

43:                                               ; preds = %40, %43
  %44 = phi i64 [ %52, %43 ], [ %41, %40 ]
  %45 = phi i64 [ %53, %43 ], [ 0, %40 ]
  %46 = getelementptr inbounds i32, i32* %34, i64 %44
  %47 = load i32, i32* %46, align 4, !tbaa !9
  %48 = zext i32 %47 to i64
  %49 = getelementptr inbounds i32, i32* %15, i64 %48
  %50 = load i32, i32* %49, align 4, !tbaa !9
  %51 = add i32 %50, 1
  store i32 %51, i32* %49, align 4, !tbaa !9
  %52 = add nuw nsw i64 %44, 1
  %53 = add i64 %45, 1
  %54 = icmp eq i64 %53, %36
  br i1 %54, label %55, label %43, !llvm.loop !77

55:                                               ; preds = %40, %43, %30
  %56 = icmp eq i32 %10, 0
  br i1 %56, label %92, label %57

57:                                               ; preds = %55
  %58 = load i32, i32* %17, align 4, !tbaa !9
  br label %96

59:                                               ; preds = %59, %38
  %60 = phi i64 [ 0, %38 ], [ %89, %59 ]
  %61 = phi i64 [ 0, %38 ], [ %90, %59 ]
  %62 = getelementptr inbounds i32, i32* %34, i64 %60
  %63 = load i32, i32* %62, align 4, !tbaa !9
  %64 = zext i32 %63 to i64
  %65 = getelementptr inbounds i32, i32* %15, i64 %64
  %66 = load i32, i32* %65, align 4, !tbaa !9
  %67 = add i32 %66, 1
  store i32 %67, i32* %65, align 4, !tbaa !9
  %68 = or i64 %60, 1
  %69 = getelementptr inbounds i32, i32* %34, i64 %68
  %70 = load i32, i32* %69, align 4, !tbaa !9
  %71 = zext i32 %70 to i64
  %72 = getelementptr inbounds i32, i32* %15, i64 %71
  %73 = load i32, i32* %72, align 4, !tbaa !9
  %74 = add i32 %73, 1
  store i32 %74, i32* %72, align 4, !tbaa !9
  %75 = or i64 %60, 2
  %76 = getelementptr inbounds i32, i32* %34, i64 %75
  %77 = load i32, i32* %76, align 4, !tbaa !9
  %78 = zext i32 %77 to i64
  %79 = getelementptr inbounds i32, i32* %15, i64 %78
  %80 = load i32, i32* %79, align 4, !tbaa !9
  %81 = add i32 %80, 1
  store i32 %81, i32* %79, align 4, !tbaa !9
  %82 = or i64 %60, 3
  %83 = getelementptr inbounds i32, i32* %34, i64 %82
  %84 = load i32, i32* %83, align 4, !tbaa !9
  %85 = zext i32 %84 to i64
  %86 = getelementptr inbounds i32, i32* %15, i64 %85
  %87 = load i32, i32* %86, align 4, !tbaa !9
  %88 = add i32 %87, 1
  store i32 %88, i32* %86, align 4, !tbaa !9
  %89 = add nuw nsw i64 %60, 4
  %90 = add i64 %61, 4
  %91 = icmp eq i64 %90, %39
  br i1 %91, label %40, label %59

92:                                               ; preds = %96, %55
  br i1 %31, label %128, label %93

93:                                               ; preds = %92
  %94 = getelementptr inbounds %struct.HuffmanTree, %struct.HuffmanTree* %0, i64 0, i32 1
  %95 = load i32*, i32** %94, align 8, !tbaa !53
  br label %109

96:                                               ; preds = %57, %96
  %97 = phi i32 [ %104, %96 ], [ %58, %57 ]
  %98 = phi i32 [ %107, %96 ], [ 1, %57 ]
  %99 = add i32 %98, -1
  %100 = zext i32 %99 to i64
  %101 = getelementptr inbounds i32, i32* %15, i64 %100
  %102 = load i32, i32* %101, align 4, !tbaa !9
  %103 = add i32 %102, %97
  %104 = shl i32 %103, 1
  %105 = zext i32 %98 to i64
  %106 = getelementptr inbounds i32, i32* %17, i64 %105
  store i32 %104, i32* %106, align 4, !tbaa !9
  %107 = add i32 %98, 1
  %108 = icmp ugt i32 %107, %10
  br i1 %108, label %92, label %96

109:                                              ; preds = %93, %125
  %110 = phi i32 [ 0, %93 ], [ %126, %125 ]
  %111 = zext i32 %110 to i64
  %112 = getelementptr inbounds i32, i32* %95, i64 %111
  %113 = load i32, i32* %112, align 4, !tbaa !9
  %114 = icmp eq i32 %113, 0
  br i1 %114, label %125, label %115

115:                                              ; preds = %109
  %116 = zext i32 %113 to i64
  %117 = getelementptr inbounds i32, i32* %17, i64 %116
  %118 = load i32, i32* %117, align 4, !tbaa !9
  %119 = add i32 %118, 1
  store i32 %119, i32* %117, align 4, !tbaa !9
  %120 = getelementptr inbounds i32, i32* %18, i64 %111
  store i32 %118, i32* %120, align 4, !tbaa !9
  %121 = load i32, i32* %112, align 4, !tbaa !9
  %122 = shl nsw i32 -1, %121
  %123 = xor i32 %122, -1
  %124 = and i32 %118, %123
  store i32 %124, i32* %120, align 4, !tbaa !9
  br label %125

125:                                              ; preds = %109, %115
  %126 = add i32 %110, 1
  %127 = icmp eq i32 %126, %3
  br i1 %127, label %128, label %109

128:                                              ; preds = %125, %92
  tail call void @free(i8* noundef %14) #25
  tail call void @free(i8* noundef %16) #25
  %129 = tail call dereferenceable_or_null(2048) i8* @calloc(i64 1, i64 2048) #25
  %130 = bitcast i8* %129 to i32*
  %131 = icmp eq i8* %129, null
  br i1 %131, label %434, label %132

132:                                              ; preds = %128
  %133 = zext i32 %3 to i64
  %134 = icmp eq i32 %3, 0
  br i1 %134, label %158, label %135

135:                                              ; preds = %132
  %136 = getelementptr inbounds %struct.HuffmanTree, %struct.HuffmanTree* %0, i64 0, i32 1
  %137 = load i32*, i32** %136, align 8, !tbaa !53
  br label %138

138:                                              ; preds = %155, %135
  %139 = phi i64 [ 0, %135 ], [ %156, %155 ]
  %140 = getelementptr inbounds i32, i32* %137, i64 %139
  %141 = load i32, i32* %140, align 4, !tbaa !9
  %142 = icmp ult i32 %141, 10
  br i1 %142, label %155, label %143

143:                                              ; preds = %138
  %144 = getelementptr inbounds i32, i32* %18, i64 %139
  %145 = load i32, i32* %144, align 4, !tbaa !9
  %146 = add i32 %141, -9
  %147 = lshr i32 %145, %146
  %148 = trunc i32 %147 to i9
  %149 = tail call i9 @llvm.bitreverse.i9(i9 %148) #25
  %150 = zext i9 %149 to i64
  %151 = getelementptr inbounds i32, i32* %130, i64 %150
  %152 = load i32, i32* %151, align 4, !tbaa !9
  %153 = icmp ugt i32 %152, %141
  %154 = select i1 %153, i32 %152, i32 %141
  store i32 %154, i32* %151, align 4, !tbaa !9
  br label %155

155:                                              ; preds = %143, %138
  %156 = add nuw nsw i64 %139, 1
  %157 = icmp eq i64 %156, %133
  br i1 %157, label %158, label %138

158:                                              ; preds = %155, %132
  br label %159

159:                                              ; preds = %159, %158
  %160 = phi i64 [ 0, %158 ], [ %179, %159 ]
  %161 = phi i64 [ 512, %158 ], [ %178, %159 ]
  %162 = getelementptr inbounds i32, i32* %130, i64 %160
  %163 = load i32, i32* %162, align 4, !tbaa !9
  %164 = icmp ugt i32 %163, 9
  %165 = add i32 %163, -9
  %166 = shl nuw i32 1, %165
  %167 = select i1 %164, i32 %166, i32 0
  %168 = zext i32 %167 to i64
  %169 = add i64 %161, %168
  %170 = or i64 %160, 1
  %171 = getelementptr inbounds i32, i32* %130, i64 %170
  %172 = load i32, i32* %171, align 4, !tbaa !9
  %173 = icmp ugt i32 %172, 9
  %174 = add i32 %172, -9
  %175 = shl nuw i32 1, %174
  %176 = select i1 %173, i32 %175, i32 0
  %177 = zext i32 %176 to i64
  %178 = add i64 %169, %177
  %179 = add nuw nsw i64 %160, 2
  %180 = icmp eq i64 %179, 512
  br i1 %180, label %181, label %159

181:                                              ; preds = %159
  %182 = tail call noalias i8* @malloc(i64 noundef %178) #25
  %183 = getelementptr inbounds %struct.HuffmanTree, %struct.HuffmanTree* %0, i64 0, i32 4
  store i8* %182, i8** %183, align 8, !tbaa !64
  %184 = shl i64 %178, 1
  %185 = tail call noalias i8* @malloc(i64 noundef %184) #25
  %186 = getelementptr inbounds %struct.HuffmanTree, %struct.HuffmanTree* %0, i64 0, i32 5
  %187 = bitcast i16** %186 to i8**
  store i8* %185, i8** %187, align 8, !tbaa !65
  %188 = icmp eq i8* %182, null
  %189 = icmp eq i8* %185, null
  %190 = or i1 %188, %189
  br i1 %190, label %205, label %191

191:                                              ; preds = %181
  %192 = icmp eq i64 %178, 0
  br i1 %192, label %234, label %193

193:                                              ; preds = %191
  store i8 16, i8* %182, align 1, !tbaa !14
  %194 = icmp eq i64 %178, 1
  br i1 %194, label %234, label %195

195:                                              ; preds = %193
  %196 = getelementptr inbounds i8, i8* %182, i64 1
  store i8 16, i8* %196, align 1, !tbaa !14
  %197 = icmp eq i64 %178, 2
  br i1 %197, label %234, label %198

198:                                              ; preds = %195
  %199 = add i64 %178, -2
  %200 = add i64 %178, -3
  %201 = and i64 %199, 3
  %202 = icmp ult i64 %200, 3
  br i1 %202, label %223, label %203

203:                                              ; preds = %198
  %204 = and i64 %199, -4
  br label %206

205:                                              ; preds = %181
  tail call void @free(i8* noundef nonnull %129) #25
  br label %434

206:                                              ; preds = %206, %203
  %207 = phi i64 [ 2, %203 ], [ %220, %206 ]
  %208 = phi i64 [ 0, %203 ], [ %221, %206 ]
  %209 = load i8*, i8** %183, align 8, !tbaa !64
  %210 = getelementptr inbounds i8, i8* %209, i64 %207
  store i8 16, i8* %210, align 1, !tbaa !14
  %211 = or i64 %207, 1
  %212 = load i8*, i8** %183, align 8, !tbaa !64
  %213 = getelementptr inbounds i8, i8* %212, i64 %211
  store i8 16, i8* %213, align 1, !tbaa !14
  %214 = add nuw i64 %207, 2
  %215 = load i8*, i8** %183, align 8, !tbaa !64
  %216 = getelementptr inbounds i8, i8* %215, i64 %214
  store i8 16, i8* %216, align 1, !tbaa !14
  %217 = add nuw i64 %207, 3
  %218 = load i8*, i8** %183, align 8, !tbaa !64
  %219 = getelementptr inbounds i8, i8* %218, i64 %217
  store i8 16, i8* %219, align 1, !tbaa !14
  %220 = add nuw i64 %207, 4
  %221 = add i64 %208, 4
  %222 = icmp eq i64 %221, %204
  br i1 %222, label %223, label %206

223:                                              ; preds = %206, %198
  %224 = phi i64 [ 2, %198 ], [ %220, %206 ]
  %225 = icmp eq i64 %201, 0
  br i1 %225, label %234, label %226

226:                                              ; preds = %223, %226
  %227 = phi i64 [ %231, %226 ], [ %224, %223 ]
  %228 = phi i64 [ %232, %226 ], [ 0, %223 ]
  %229 = load i8*, i8** %183, align 8, !tbaa !64
  %230 = getelementptr inbounds i8, i8* %229, i64 %227
  store i8 16, i8* %230, align 1, !tbaa !14
  %231 = add nuw i64 %227, 1
  %232 = add i64 %228, 1
  %233 = icmp eq i64 %232, %201
  br i1 %233, label %234, label %226, !llvm.loop !78

234:                                              ; preds = %223, %226, %195, %193, %191
  br label %235

235:                                              ; preds = %234, %252
  %236 = phi i64 [ %254, %252 ], [ 0, %234 ]
  %237 = phi i64 [ %253, %252 ], [ 512, %234 ]
  %238 = getelementptr inbounds i32, i32* %130, i64 %236
  %239 = load i32, i32* %238, align 4, !tbaa !9
  %240 = icmp ult i32 %239, 10
  br i1 %240, label %252, label %241

241:                                              ; preds = %235
  %242 = trunc i32 %239 to i8
  %243 = load i8*, i8** %183, align 8, !tbaa !64
  %244 = getelementptr inbounds i8, i8* %243, i64 %236
  store i8 %242, i8* %244, align 1, !tbaa !14
  %245 = trunc i64 %237 to i16
  %246 = load i16*, i16** %186, align 8, !tbaa !65
  %247 = getelementptr inbounds i16, i16* %246, i64 %236
  store i16 %245, i16* %247, align 2, !tbaa !66
  %248 = add i32 %239, -9
  %249 = shl nuw i32 1, %248
  %250 = zext i32 %249 to i64
  %251 = add i64 %237, %250
  br label %252

252:                                              ; preds = %241, %235
  %253 = phi i64 [ %251, %241 ], [ %237, %235 ]
  %254 = add nuw nsw i64 %236, 1
  %255 = icmp eq i64 %254, 512
  br i1 %255, label %256, label %235

256:                                              ; preds = %252
  tail call void @free(i8* noundef nonnull %129) #25
  %257 = load i32, i32* %2, align 4, !tbaa !55
  %258 = icmp eq i32 %257, 0
  br i1 %258, label %379, label %259

259:                                              ; preds = %256
  %260 = getelementptr inbounds %struct.HuffmanTree, %struct.HuffmanTree* %0, i64 0, i32 1
  br label %261

261:                                              ; preds = %368, %259
  %262 = phi i64 [ 0, %259 ], [ %370, %368 ]
  %263 = phi i64 [ 0, %259 ], [ %369, %368 ]
  %264 = load i32*, i32** %260, align 8, !tbaa !53
  %265 = getelementptr inbounds i32, i32* %264, i64 %262
  %266 = load i32, i32* %265, align 4, !tbaa !9
  %267 = icmp eq i32 %266, 0
  br i1 %267, label %368, label %268

268:                                              ; preds = %261
  %269 = load i32*, i32** %7, align 8, !tbaa !68
  %270 = getelementptr inbounds i32, i32* %269, i64 %262
  %271 = load i32, i32* %270, align 4, !tbaa !9
  %272 = and i32 %266, 1
  %273 = icmp eq i32 %266, 1
  br i1 %273, label %296, label %274

274:                                              ; preds = %268
  %275 = and i32 %266, -2
  br label %276

276:                                              ; preds = %276, %274
  %277 = phi i32 [ 0, %274 ], [ %292, %276 ]
  %278 = phi i32 [ 0, %274 ], [ %293, %276 ]
  %279 = phi i32 [ 0, %274 ], [ %294, %276 ]
  %280 = xor i32 %278, -1
  %281 = add i32 %266, %280
  %282 = lshr i32 %271, %281
  %283 = and i32 %282, 1
  %284 = shl nuw i32 %283, %278
  %285 = or i32 %284, %277
  %286 = or i32 %278, 1
  %287 = sub nuw nsw i32 -2, %278
  %288 = add i32 %266, %287
  %289 = lshr i32 %271, %288
  %290 = and i32 %289, 1
  %291 = shl nuw i32 %290, %286
  %292 = or i32 %291, %285
  %293 = add nuw i32 %278, 2
  %294 = add i32 %279, 2
  %295 = icmp eq i32 %294, %275
  br i1 %295, label %296, label %276

296:                                              ; preds = %276, %268
  %297 = phi i32 [ undef, %268 ], [ %292, %276 ]
  %298 = phi i32 [ 0, %268 ], [ %292, %276 ]
  %299 = phi i32 [ 0, %268 ], [ %293, %276 ]
  %300 = icmp eq i32 %272, 0
  br i1 %300, label %308, label %301

301:                                              ; preds = %296
  %302 = xor i32 %299, -1
  %303 = add i32 %266, %302
  %304 = lshr i32 %271, %303
  %305 = and i32 %304, 1
  %306 = shl nuw i32 %305, %299
  %307 = or i32 %306, %298
  br label %308

308:                                              ; preds = %296, %301
  %309 = phi i32 [ %297, %296 ], [ %307, %301 ]
  %310 = add i64 %263, 1
  %311 = icmp ult i32 %266, 10
  br i1 %311, label %312, label %331

312:                                              ; preds = %308
  %313 = sub nuw nsw i32 9, %266
  %314 = trunc i32 %266 to i8
  %315 = trunc i64 %262 to i16
  br label %316

316:                                              ; preds = %325, %312
  %317 = phi i32 [ 0, %312 ], [ %328, %325 ]
  %318 = shl i32 %317, %266
  %319 = or i32 %318, %309
  %320 = load i8*, i8** %183, align 8, !tbaa !64
  %321 = zext i32 %319 to i64
  %322 = getelementptr inbounds i8, i8* %320, i64 %321
  %323 = load i8, i8* %322, align 1, !tbaa !14
  %324 = icmp eq i8 %323, 16
  br i1 %324, label %325, label %434

325:                                              ; preds = %316
  store i8 %314, i8* %322, align 1, !tbaa !14
  %326 = load i16*, i16** %186, align 8, !tbaa !65
  %327 = getelementptr inbounds i16, i16* %326, i64 %321
  store i16 %315, i16* %327, align 2, !tbaa !66
  %328 = add i32 %317, 1
  %329 = lshr i32 %328, %313
  %330 = icmp eq i32 %329, 0
  br i1 %330, label %316, label %368

331:                                              ; preds = %308
  %332 = and i32 %309, 511
  %333 = load i8*, i8** %183, align 8, !tbaa !64
  %334 = zext i32 %332 to i64
  %335 = getelementptr inbounds i8, i8* %333, i64 %334
  %336 = load i8, i8* %335, align 1, !tbaa !14
  %337 = zext i8 %336 to i32
  %338 = load i16*, i16** %186, align 8, !tbaa !65
  %339 = getelementptr inbounds i16, i16* %338, i64 %334
  %340 = load i16, i16* %339, align 2, !tbaa !66
  %341 = zext i16 %340 to i32
  %342 = add i32 %266, -9
  %343 = sub i32 %337, %266
  %344 = icmp ugt i32 %266, %337
  br i1 %344, label %434, label %345

345:                                              ; preds = %331
  %346 = lshr i32 %309, 9
  %347 = trunc i32 %266 to i8
  %348 = trunc i64 %262 to i16
  %349 = add nuw nsw i32 %346, %341
  %350 = zext i32 %349 to i64
  %351 = getelementptr inbounds i8, i8* %333, i64 %350
  store i8 %347, i8* %351, align 1, !tbaa !14
  %352 = load i16*, i16** %186, align 8, !tbaa !65
  %353 = getelementptr inbounds i16, i16* %352, i64 %350
  store i16 %348, i16* %353, align 2, !tbaa !66
  %354 = icmp eq i32 %343, 0
  br i1 %354, label %368, label %355

355:                                              ; preds = %345, %355
  %356 = phi i32 [ %365, %355 ], [ 1, %345 ]
  %357 = load i8*, i8** %183, align 8, !tbaa !64
  %358 = shl i32 %356, %342
  %359 = or i32 %358, %346
  %360 = add i32 %359, %341
  %361 = zext i32 %360 to i64
  %362 = getelementptr inbounds i8, i8* %357, i64 %361
  store i8 %347, i8* %362, align 1, !tbaa !14
  %363 = load i16*, i16** %186, align 8, !tbaa !65
  %364 = getelementptr inbounds i16, i16* %363, i64 %361
  store i16 %348, i16* %364, align 2, !tbaa !66
  %365 = add i32 %356, 1
  %366 = lshr i32 %365, %343
  %367 = icmp eq i32 %366, 0
  br i1 %367, label %355, label %368

368:                                              ; preds = %355, %325, %345, %261
  %369 = phi i64 [ %263, %261 ], [ %310, %345 ], [ %310, %325 ], [ %310, %355 ]
  %370 = add nuw nsw i64 %262, 1
  %371 = load i32, i32* %2, align 4, !tbaa !55
  %372 = zext i32 %371 to i64
  %373 = icmp ult i64 %370, %372
  br i1 %373, label %261, label %374

374:                                              ; preds = %368
  %375 = icmp ult i64 %369, 2
  br i1 %375, label %379, label %376

376:                                              ; preds = %374
  br i1 %192, label %434, label %377

377:                                              ; preds = %376
  %378 = load i8*, i8** %183, align 8, !tbaa !64
  br label %414

379:                                              ; preds = %374, %256
  br i1 %192, label %434, label %380

380:                                              ; preds = %379
  %381 = and i64 %178, 1
  %382 = icmp eq i64 %178, 1
  br i1 %382, label %421, label %383

383:                                              ; preds = %380
  %384 = and i64 %178, -2
  br label %385

385:                                              ; preds = %408, %383
  %386 = phi i64 [ 0, %383 ], [ %409, %408 ]
  %387 = phi i64 [ 0, %383 ], [ %410, %408 ]
  %388 = load i8*, i8** %183, align 8, !tbaa !64
  %389 = getelementptr inbounds i8, i8* %388, i64 %386
  %390 = load i8, i8* %389, align 1, !tbaa !14
  %391 = icmp eq i8 %390, 16
  br i1 %391, label %392, label %397

392:                                              ; preds = %385
  %393 = icmp ult i64 %386, 512
  %394 = select i1 %393, i8 1, i8 10
  store i8 %394, i8* %389, align 1, !tbaa !14
  %395 = load i16*, i16** %186, align 8, !tbaa !65
  %396 = getelementptr inbounds i16, i16* %395, i64 %386
  store i16 -1, i16* %396, align 2, !tbaa !66
  br label %397

397:                                              ; preds = %392, %385
  %398 = or i64 %386, 1
  %399 = load i8*, i8** %183, align 8, !tbaa !64
  %400 = getelementptr inbounds i8, i8* %399, i64 %398
  %401 = load i8, i8* %400, align 1, !tbaa !14
  %402 = icmp eq i8 %401, 16
  br i1 %402, label %403, label %408

403:                                              ; preds = %397
  %404 = icmp ult i64 %398, 512
  %405 = select i1 %404, i8 1, i8 10
  store i8 %405, i8* %400, align 1, !tbaa !14
  %406 = load i16*, i16** %186, align 8, !tbaa !65
  %407 = getelementptr inbounds i16, i16* %406, i64 %398
  store i16 -1, i16* %407, align 2, !tbaa !66
  br label %408

408:                                              ; preds = %403, %397
  %409 = add nuw i64 %386, 2
  %410 = add i64 %387, 2
  %411 = icmp eq i64 %410, %384
  br i1 %411, label %421, label %385

412:                                              ; preds = %414
  %413 = icmp eq i64 %419, %178
  br i1 %413, label %434, label %414

414:                                              ; preds = %412, %377
  %415 = phi i64 [ 0, %377 ], [ %419, %412 ]
  %416 = getelementptr inbounds i8, i8* %378, i64 %415
  %417 = load i8, i8* %416, align 1, !tbaa !14
  %418 = icmp eq i8 %417, 16
  %419 = add nuw i64 %415, 1
  br i1 %418, label %434, label %412

420:                                              ; preds = %1
  tail call void @free(i8* noundef %14) #25
  tail call void @free(i8* noundef %16) #25
  br label %434

421:                                              ; preds = %408, %380
  %422 = phi i64 [ 0, %380 ], [ %409, %408 ]
  %423 = icmp eq i64 %381, 0
  br i1 %423, label %434, label %424

424:                                              ; preds = %421
  %425 = load i8*, i8** %183, align 8, !tbaa !64
  %426 = getelementptr inbounds i8, i8* %425, i64 %422
  %427 = load i8, i8* %426, align 1, !tbaa !14
  %428 = icmp eq i8 %427, 16
  br i1 %428, label %429, label %434

429:                                              ; preds = %424
  %430 = icmp ult i64 %422, 512
  %431 = select i1 %430, i8 1, i8 10
  store i8 %431, i8* %426, align 1, !tbaa !14
  %432 = load i16*, i16** %186, align 8, !tbaa !65
  %433 = getelementptr inbounds i16, i16* %432, i64 %422
  store i16 -1, i16* %433, align 2, !tbaa !66
  br label %434

434:                                              ; preds = %331, %316, %414, %412, %421, %429, %424, %379, %376, %205, %128, %420
  %435 = phi i32 [ 83, %420 ], [ 83, %205 ], [ 83, %128 ], [ 0, %379 ], [ 0, %376 ], [ 0, %424 ], [ 0, %429 ], [ 0, %421 ], [ 0, %412 ], [ 55, %414 ], [ 55, %316 ], [ 55, %331 ]
  ret i32 %435
}

; Function Attrs: nofree nosync nounwind readnone speculatable willreturn
declare i32 @llvm.usub.sat.i32(i32, i32) #9

; Function Attrs: inaccessiblememonly nofree nounwind willreturn
declare noalias noundef i8* @calloc(i64 noundef, i64 noundef) local_unnamed_addr #10

; Function Attrs: nofree nosync nounwind readnone speculatable willreturn
declare i9 @llvm.bitreverse.i9(i9) #9

; Function Attrs: nounwind uwtable
define dso_local noundef i32 @_Z15lodepng_deflatePPhPmPKhmPK23LodePNGCompressSettings(i8** nocapture noundef %0, i64* nocapture noundef %1, i8* noundef %2, i64 noundef %3, %struct.LodePNGCompressSettings* nocapture noundef readonly %4) local_unnamed_addr #3 {
  %6 = alloca %struct.uivector, align 8
  %7 = alloca %struct.HuffmanTree, align 8
  %8 = alloca %struct.HuffmanTree, align 8
  %9 = alloca %struct.HuffmanTree, align 8
  %10 = alloca %struct.HuffmanTree, align 8
  %11 = alloca %struct.HuffmanTree, align 8
  %12 = alloca %struct.uivector, align 8
  %13 = alloca %struct.Hash, align 8
  %14 = alloca %struct.LodePNGBitWriter, align 8
  %15 = alloca %struct.ucvector, align 8
  %16 = bitcast %struct.ucvector* %15 to i8*
  call void @llvm.lifetime.start.p0i8(i64 24, i8* nonnull %16) #25
  %17 = load i8*, i8** %0, align 8, !tbaa !7
  %18 = load i64, i64* %1, align 8, !tbaa !3
  %19 = getelementptr inbounds %struct.ucvector, %struct.ucvector* %15, i64 0, i32 0
  store i8* %17, i8** %19, align 8, !tbaa !39, !alias.scope !79
  %20 = getelementptr inbounds %struct.ucvector, %struct.ucvector* %15, i64 0, i32 1
  store i64 %18, i64* %20, align 8, !tbaa !44, !alias.scope !79
  %21 = getelementptr inbounds %struct.ucvector, %struct.ucvector* %15, i64 0, i32 2
  store i64 %18, i64* %21, align 8, !tbaa !45, !alias.scope !79
  %22 = bitcast %struct.Hash* %13 to i8*
  call void @llvm.lifetime.start.p0i8(i64 48, i8* nonnull %22) #25
  %23 = bitcast %struct.LodePNGBitWriter* %14 to i8*
  call void @llvm.lifetime.start.p0i8(i64 16, i8* nonnull %23) #25
  %24 = getelementptr inbounds %struct.LodePNGBitWriter, %struct.LodePNGBitWriter* %14, i64 0, i32 0
  store %struct.ucvector* %15, %struct.ucvector** %24, align 8, !tbaa !82
  %25 = getelementptr inbounds %struct.LodePNGBitWriter, %struct.LodePNGBitWriter* %14, i64 0, i32 1
  store i8 0, i8* %25, align 8, !tbaa !84
  %26 = getelementptr inbounds %struct.LodePNGCompressSettings, %struct.LodePNGCompressSettings* %4, i64 0, i32 0
  %27 = load i32, i32* %26, align 8, !tbaa !85
  %28 = icmp ugt i32 %27, 2
  br i1 %28, label %2605, label %29

29:                                               ; preds = %5
  switch i32 %27, label %97 [
    i32 0, label %30
    i32 1, label %104
  ]

30:                                               ; preds = %29
  %31 = add i64 %3, 65534
  %32 = udiv i64 %31, 65535
  %33 = icmp ult i64 %31, 65535
  br i1 %33, label %2605, label %34

34:                                               ; preds = %30
  %35 = add nsw i64 %32, -1
  %36 = trunc i64 %3 to i32
  br label %37

37:                                               ; preds = %93, %34
  %38 = phi i64 [ %18, %34 ], [ %96, %93 ]
  %39 = phi i64 [ %18, %34 ], [ %95, %93 ]
  %40 = phi i64 [ 0, %34 ], [ %91, %93 ]
  %41 = phi i32 [ 0, %34 ], [ %94, %93 ]
  %42 = icmp eq i64 %40, %35
  %43 = zext i32 %41 to i64
  %44 = sub i64 %3, %43
  %45 = icmp ult i64 %44, 65535
  %46 = sub i32 %36, %41
  %47 = select i1 %45, i32 %46, i32 65535
  %48 = sub i32 65535, %47
  %49 = zext i32 %47 to i64
  %50 = add i64 %39, 5
  %51 = add i64 %50, %49
  store i64 %51, i64* %20, align 8, !tbaa !44
  %52 = icmp ult i64 %38, %51
  br i1 %52, label %55, label %53

53:                                               ; preds = %37
  %54 = load i8*, i8** %19, align 8, !tbaa !39
  br label %62

55:                                               ; preds = %37
  %56 = lshr i64 %38, 1
  %57 = add i64 %51, %56
  %58 = load i8*, i8** %19, align 8, !tbaa !39
  %59 = call i8* @realloc(i8* noundef %58, i64 noundef %57) #25
  %60 = icmp eq i8* %59, null
  br i1 %60, label %2605, label %61

61:                                               ; preds = %55
  store i64 %57, i64* %21, align 8, !tbaa !45
  store i8* %59, i8** %19, align 8, !tbaa !39
  br label %62

62:                                               ; preds = %61, %53
  %63 = phi i8* [ %54, %53 ], [ %59, %61 ]
  %64 = zext i1 %42 to i8
  %65 = getelementptr inbounds i8, i8* %63, i64 %39
  store i8 %64, i8* %65, align 1, !tbaa !14
  %66 = trunc i32 %47 to i8
  %67 = load i8*, i8** %19, align 8, !tbaa !39
  %68 = add i64 %39, 1
  %69 = getelementptr inbounds i8, i8* %67, i64 %68
  store i8 %66, i8* %69, align 1, !tbaa !14
  %70 = lshr i32 %47, 8
  %71 = trunc i32 %70 to i8
  %72 = load i8*, i8** %19, align 8, !tbaa !39
  %73 = add i64 %39, 2
  %74 = getelementptr inbounds i8, i8* %72, i64 %73
  store i8 %71, i8* %74, align 1, !tbaa !14
  %75 = trunc i32 %48 to i8
  %76 = load i8*, i8** %19, align 8, !tbaa !39
  %77 = add i64 %39, 3
  %78 = getelementptr inbounds i8, i8* %76, i64 %77
  store i8 %75, i8* %78, align 1, !tbaa !14
  %79 = lshr i32 %48, 8
  %80 = trunc i32 %79 to i8
  %81 = load i8*, i8** %19, align 8, !tbaa !39
  %82 = add i64 %39, 4
  %83 = getelementptr inbounds i8, i8* %81, i64 %82
  store i8 %80, i8* %83, align 1, !tbaa !14
  %84 = icmp eq i32 %47, 0
  br i1 %84, label %90, label %85

85:                                               ; preds = %62
  %86 = getelementptr inbounds i8, i8* %2, i64 %43
  %87 = load i8*, i8** %19, align 8, !tbaa !39
  %88 = getelementptr inbounds i8, i8* %87, i64 5
  %89 = getelementptr inbounds i8, i8* %88, i64 %39
  call void @llvm.memcpy.p0i8.p0i8.i64(i8* nonnull align 1 %89, i8* align 1 %86, i64 %49, i1 false) #25, !tbaa !14, !alias.scope !87
  br label %90

90:                                               ; preds = %85, %62
  %91 = add nuw nsw i64 %40, 1
  %92 = icmp eq i64 %91, %32
  br i1 %92, label %2605, label %93

93:                                               ; preds = %90
  %94 = add i32 %47, %41
  %95 = load i64, i64* %20, align 8, !tbaa !44
  %96 = load i64, i64* %21, align 8, !tbaa !45
  br label %37

97:                                               ; preds = %29
  %98 = lshr i64 %3, 3
  %99 = icmp ugt i64 %98, 65528
  %100 = select i1 %99, i64 %98, i64 65528
  %101 = icmp ult i64 %100, 262136
  %102 = select i1 %101, i64 %100, i64 262136
  %103 = add nuw nsw i64 %102, 8
  br label %104

104:                                              ; preds = %97, %29
  %105 = phi i64 [ %103, %97 ], [ %3, %29 ]
  %106 = add i64 %3, -1
  %107 = add i64 %106, %105
  %108 = udiv i64 %107, %105
  %109 = icmp ugt i64 %105, %107
  %110 = select i1 %109, i64 1, i64 %108
  %111 = getelementptr inbounds %struct.LodePNGCompressSettings, %struct.LodePNGCompressSettings* %4, i64 0, i32 2
  %112 = load i32, i32* %111, align 8, !tbaa !91
  %113 = call noalias dereferenceable_or_null(262144) i8* @malloc(i64 noundef 262144) #25
  %114 = bitcast %struct.Hash* %13 to i8**
  store i8* %113, i8** %114, align 8, !tbaa !92
  %115 = zext i32 %112 to i64
  %116 = shl nuw nsw i64 %115, 2
  %117 = call noalias i8* @malloc(i64 noundef %116) #25
  %118 = getelementptr inbounds %struct.Hash, %struct.Hash* %13, i64 0, i32 2
  %119 = bitcast i32** %118 to i8**
  store i8* %117, i8** %119, align 8, !tbaa !94
  %120 = shl nuw nsw i64 %115, 1
  %121 = call noalias i8* @malloc(i64 noundef %120) #25
  %122 = getelementptr inbounds %struct.Hash, %struct.Hash* %13, i64 0, i32 1
  %123 = bitcast i16** %122 to i8**
  store i8* %121, i8** %123, align 8, !tbaa !95
  %124 = call noalias i8* @malloc(i64 noundef %120) #25
  %125 = getelementptr inbounds %struct.Hash, %struct.Hash* %13, i64 0, i32 5
  %126 = bitcast i16** %125 to i8**
  store i8* %124, i8** %126, align 8, !tbaa !96
  %127 = call noalias dereferenceable_or_null(1036) i8* @malloc(i64 noundef 1036) #25
  %128 = getelementptr inbounds %struct.Hash, %struct.Hash* %13, i64 0, i32 3
  %129 = bitcast i32** %128 to i8**
  store i8* %127, i8** %129, align 8, !tbaa !97
  %130 = call noalias i8* @malloc(i64 noundef %120) #25
  %131 = getelementptr inbounds %struct.Hash, %struct.Hash* %13, i64 0, i32 4
  %132 = bitcast i16** %131 to i8**
  store i8* %130, i8** %132, align 8, !tbaa !98
  %133 = icmp eq i8* %113, null
  %134 = bitcast i8* %121 to i16*
  %135 = bitcast i8* %130 to i16*
  %136 = icmp eq i8* %121, null
  %137 = or i1 %133, %136
  %138 = icmp eq i8* %117, null
  %139 = or i1 %138, %137
  br i1 %139, label %2603, label %140

140:                                              ; preds = %104
  %141 = icmp eq i8* %127, null
  %142 = icmp eq i8* %130, null
  %143 = or i1 %141, %142
  %144 = icmp eq i8* %124, null
  %145 = or i1 %144, %143
  br i1 %145, label %2603, label %146

146:                                              ; preds = %140
  call void @llvm.memset.p0i8.i64(i8* noundef nonnull align 4 dereferenceable(262144) %113, i8 -1, i64 262144, i1 false) #25, !tbaa !9
  %147 = icmp eq i32 %112, 0
  br i1 %147, label %148, label %149

148:                                              ; preds = %146
  call void @llvm.memset.p0i8.i64(i8* noundef nonnull align 4 dereferenceable(1036) %127, i8 -1, i64 1036, i1 false) #25, !tbaa !9
  br label %295

149:                                              ; preds = %146
  call void @llvm.memset.p0i8.i64(i8* nonnull align 4 %117, i8 -1, i64 %116, i1 false) #25, !tbaa !9
  %150 = icmp ult i32 %112, 8
  br i1 %150, label %214, label %151

151:                                              ; preds = %149
  %152 = and i64 %115, 4294967288
  %153 = add nsw i64 %152, -8
  %154 = lshr exact i64 %153, 3
  %155 = add nuw nsw i64 %154, 1
  %156 = and i64 %155, 7
  %157 = icmp ult i64 %153, 56
  br i1 %157, label %198, label %158

158:                                              ; preds = %151
  %159 = and i64 %155, 4611686018427387896
  br label %160

160:                                              ; preds = %160, %158
  %161 = phi i64 [ 0, %158 ], [ %194, %160 ]
  %162 = phi <8 x i16> [ <i16 0, i16 1, i16 2, i16 3, i16 4, i16 5, i16 6, i16 7>, %158 ], [ %195, %160 ]
  %163 = phi i64 [ 0, %158 ], [ %196, %160 ]
  %164 = getelementptr inbounds i16, i16* %134, i64 %161
  %165 = bitcast i16* %164 to <8 x i16>*
  store <8 x i16> %162, <8 x i16>* %165, align 2, !tbaa !66
  %166 = or i64 %161, 8
  %167 = add <8 x i16> %162, <i16 8, i16 8, i16 8, i16 8, i16 8, i16 8, i16 8, i16 8>
  %168 = getelementptr inbounds i16, i16* %134, i64 %166
  %169 = bitcast i16* %168 to <8 x i16>*
  store <8 x i16> %167, <8 x i16>* %169, align 2, !tbaa !66
  %170 = or i64 %161, 16
  %171 = add <8 x i16> %162, <i16 16, i16 16, i16 16, i16 16, i16 16, i16 16, i16 16, i16 16>
  %172 = getelementptr inbounds i16, i16* %134, i64 %170
  %173 = bitcast i16* %172 to <8 x i16>*
